     1                                 %line 1+1 stg2.asm
     2                                 
     3                                 [global progr]
     4                                 [global R0]
     5                                 %line 3+0 stg2.asm
     6                                 [global R1]
     7                                 [global R2]
     8                                 [global R3]
     9                                 [global R4]
    10                                 [global R5]
    11                                 [global R6]
    12                                 [global R7]
    13                                 [global R8]
    14                                 [global R9]
    15                                 %line 4+1 stg2.asm
    16                                 [global RA]
    17                                 %line 4+0 stg2.asm
    18                                 [global RB]
    19                                 [global RC]
    20                                 [global RD]
    21                                 [global RE]
    22                                 [global RF]
    23                                 [global RG]
    24                                 [global RH]
    25                                 [global RI]
    26                                 [global RJ]
    27                                 [global RK]
    28                                 [global RL]
    29                                 [global RM]
    30                                 %line 5+1 stg2.asm
    31                                 [global RN]
    32                                 %line 5+0 stg2.asm
    33                                 [global RO]
    34                                 [global RP]
    35                                 [global RQ]
    36                                 [global RR]
    37                                 [global RS]
    38                                 [global RT]
    39                                 [global RU]
    40                                 [global RV]
    41                                 [global RR]
    42                                 [global RX]
    43                                 [global RY]
    44                                 [global RZ]
    45                                 [global list]
    46                                 %line 6+1 stg2.asm
    47                                 [extern LBR]
    48                                 %line 6+0 stg2.asm
    49                                 [extern LBW]
    50                                 [extern LINE]
    51                                 [extern MB]
    52                                 %line 7+1 stg2.asm
    53                                 [extern exit]
    54                                 %line 7+0 stg2.asm
    55                                 [extern iwrch]
    56                                 [extern iread]
    57                                 [extern iwrite]
    58                                 [extern icntl]
    59                                 [extern iprnt]
    60                                 [extern ioop]
    61                                 %line 8+1 stg2.asm
    62                                 [section .data]
    63 00000000 0000                   R0: dw 0
    64 00000002 00000000                dw 0,0
    65 00000006 0100                   R1: dw 1
    66 00000008 01000100                dw 1,1
    67 0000000C 0200                   R2: dw 2
    68 0000000E 02000200                dw 2,2
    69 00000012 0300                   R3: dw 3
    70 00000014 03000300                dw 3,3
    71 00000018 0000                   R4: dw 0
    72 0000001A 04000000                dw 4,0
    73 0000001E 0A00                   R5: dw 10
    74 00000020 05000000                dw 5,0
    75 00000024 0000                   R6: dw 0
    76 00000026 06000000                dw 6,0
    77 0000002A 0400                   R7: dw 4
    78 0000002C 07000000                dw 7,0
    79 00000030 0000                   R8: dw 0
    80 00000032 08000000                dw 8,0
    81 00000036 F87F                   R9: dw listend-list
    82 00000038 09000000                dw 9,0
    83 0000003C 000000000000           RA: dw 0,0,0
    84 00000042 000000000000           RB: dw 0,0,0
    85 00000048 000000000000           RC: dw 0,0,0
    86 0000004E 000000000000           RD: dw 0,0,0
    87 00000054 000000000000           RE: dw 0,0,0
    88 0000005A 000000000000           RF: dw 0,0,0
    89 00000060 000000000000           RG: dw 0,0,0
    90 00000066 000000000000           RH: dw 0,0,0
    91 0000006C 000000000000           RI: dw 0,0,0
    92 00000072 000000000000           RJ: dw 0,0,0
    93 00000078 000000000000           RK: dw 0,0,0
    94 0000007E 000000000000           RL: dw 0,0,0
    95 00000084 000000000000           RM: dw 0,0,0
    96 0000008A 000000000000           RN: dw 0,0,0
    97 00000090 000000000000           RO: dw 0,0,0
    98 00000096 000000000000           RP: dw 0,0,0
    99 0000009C 000000000000           RQ: dw 0,0,0
   100 000000A2 000000000000           RR: dw 0,0,0
   101 000000A8 000000000000           RS: dw 0,0,0
   102 000000AE 000000000000           RT: dw 0,0,0
   103 000000B4 000000000000           RU: dw 0,0,0
   104 000000BA 000000000000           RV: dw 0,0,0
   105 000000C0 000000000000           RW: dw 0,0,0
   106 000000C6 000000000000           RX: dw 0,0,0
   107 000000CC 000000000000           RY: dw 0,0,0
   108 000000D2 000000000000           RZ: dw 0,0,0
   109                                 [section .bss]
   110 00000000 <gap>                  list: resw 16380
   111                                 listend:
   112                                 [section .text]
   113                                 progr:
   114 00000000 55                      push EBP
   115 00000001 89E5                    mov EBP,ESP
   116                                 
   117 00000003 6631C0                  xor AX,AX
   118 00000006 66A3[04000000]          mov [RI+4],AX
   119                                 
   120 0000000C 66B80100                mov AX,1
   121 00000010 66A3[02000000]          mov [RI+2],AX
   122                                 
   123 00000016 6631C0                  xor AX,AX
   124 00000019 66A3[00000000]          mov [RI],AX
   125                                 
   126 0000001F 66A1[02000000]          mov AX,[RI+2]
   127 00000025 98                      cwde
   128 00000026 890424                  mov [ESP],EAX
   129 00000029 E8(F6FFFFFF)            call iread
   130 0000002E 66A3[04000000]          mov [RI+4],AX
   131                                 
   132 00000034 6609C0                  or AX,AX
   133 00000037 0F85E5420000            jnz L98
   134                                 
   135 0000003D 8B1D[00000000]          mov EBX,[LBR]
   136 00000043 8A83[00000000]          mov AL,[LINE+EBX]
   137 00000049 6698                    cbw
   138 0000004B 43                      inc EBX
   139 0000004C 891D[00000000]          mov [LBR],EBX
   140 00000052 66A3[02000000]          mov [RA+2],AX
   141                                 
   142 00000058 66A1[00000000]          mov AX,[R8]
   143 0000005E 66A3[00000000]          mov [RA],AX
   144                                 
   145 00000064 98                      cwde
   146 00000065 05[00000000]            add EAX,list
   147 0000006A 89C3                    mov EBX,EAX
   148 0000006C 66A1[02000000]          mov AX,[RI+2]
   149 00000072 66C1E002                sal AX,2
   150 00000076 660B05[04000000]        or AX,[RI+4]
   151 0000007D C1E010                  sal EAX,16
   152 00000080 66A1[00000000]          mov AX,[RI]
   153 00000086 8903                    mov [EBX],EAX
   154                                 
   155 00000088 66B80200                mov AX,2
   156 0000008C 66A3[04000000]          mov [RB+4],AX
   157                                 
   158 00000092 8B1D[00000000]          mov EBX,[LBR]
   159 00000098 8A83[00000000]          mov AL,[LINE+EBX]
   160 0000009E 6698                    cbw
   161 000000A0 43                      inc EBX
   162 000000A1 891D[00000000]          mov [LBR],EBX
   163 000000A7 66A3[02000000]          mov [RB+2],AX
   164                                 
   165 000000AD 8B1D[00000000]          mov EBX,[LBR]
   166 000000B3 8A83[00000000]          mov AL,[LINE+EBX]
   167 000000B9 6698                    cbw
   168 000000BB 43                      inc EBX
   169 000000BC 891D[00000000]          mov [LBR],EBX
   170 000000C2 66A3[02000000]          mov [RC+2],AX
   171                                 
   172 000000C8 66A1[00000000]          mov AX,[R9]
   173 000000CE 66A3[00000000]          mov [RC],AX
   174                                 
   175 000000D4 8B1D[00000000]          mov EBX,[LBR]
   176 000000DA 8A83[00000000]          mov AL,[LINE+EBX]
   177 000000E0 6698                    cbw
   178 000000E2 43                      inc EBX
   179 000000E3 891D[00000000]          mov [LBR],EBX
   180 000000E9 66A3[02000000]          mov [RD+2],AX
   181                                 
   182 000000EF 8B1D[00000000]          mov EBX,[LBR]
   183 000000F5 8A83[00000000]          mov AL,[LINE+EBX]
   184 000000FB 6698                    cbw
   185 000000FD 43                      inc EBX
   186 000000FE 891D[00000000]          mov [LBR],EBX
   187 00000104 66A3[02000000]          mov [RE+2],AX
   188                                 
   189 0000010A 66A3[00000000]          mov [RE],AX
   190                                 
   191 00000110 8B1D[00000000]          mov EBX,[LBR]
   192 00000116 8A83[00000000]          mov AL,[LINE+EBX]
   193 0000011C 6698                    cbw
   194 0000011E 43                      inc EBX
   195 0000011F 891D[00000000]          mov [LBR],EBX
   196 00000125 66A3[02000000]          mov [RF+2],AX
   197                                 
   198 0000012B 66A1[00000000]          mov AX,[RA]
   199 00000131 6683C004                add AX,4
   200 00000135 66A3[00000000]          mov [RF],AX
   201                                 
   202 0000013B 98                      cwde
   203 0000013C 05[00000000]            add EAX,list
   204 00000141 89C3                    mov EBX,EAX
   205 00000143 31C0                    xor EAX,EAX
   206 00000145 8903                    mov [EBX],EAX
   207                                 
   208 00000147 6631C0                  xor AX,AX
   209 0000014A 66A3[02000000]          mov [RG+2],AX
   210                                 
   211 00000150 66B80A00                mov AX,10
   212 00000154 66C1E002                sal AX,2
   213 00000158 66A3[00000000]          mov [RH],AX
   214                                 
   215 0000015E 66B80100                mov AX,1
   216 00000162 66A3[04000000]          mov [RJ+4],AX
   217                                 
   218 00000168 6631C0                  xor AX,AX
   219 0000016B 66A3[00000000]          mov [RJ],AX
   220                                 
   221 00000171 66B80100                mov AX,1
   222 00000175 66A3[04000000]          mov [RL+4],AX
   223                                 
   224 0000017B 6631C0                  xor AX,AX
   225 0000017E 6648                    dec AX
   226 00000180 66A3[02000000]          mov [RL+2],AX
   227                                 
   228 00000186 6631C0                  xor AX,AX
   229 00000189 66A3[00000000]          mov [RL],AX
   230                                 
   231 0000018F 8B1D[00000000]          mov EBX,[LBR]
   232 00000195 8A83[00000000]          mov AL,[LINE+EBX]
   233 0000019B 6698                    cbw
   234 0000019D 43                      inc EBX
   235 0000019E 891D[00000000]          mov [LBR],EBX
   236 000001A4 66A3[02000000]          mov [RM+2],AX
   237                                 
   238 000001AA 6631C0                  xor AX,AX
   239 000001AD 66A3[00000000]          mov [RM],AX
   240                                 
   241 000001B3 6631C0                  xor AX,AX
   242 000001B6 66A3[04000000]          mov [RN+4],AX
   243                                 
   244 000001BC 8B1D[00000000]          mov EBX,[LBR]
   245 000001C2 8A83[00000000]          mov AL,[LINE+EBX]
   246 000001C8 6698                    cbw
   247 000001CA 43                      inc EBX
   248 000001CB 891D[00000000]          mov [LBR],EBX
   249 000001D1 66A3[02000000]          mov [RN+2],AX
   250                                 
   251 000001D7 6631C0                  xor AX,AX
   252 000001DA 66A3[04000000]          mov [RO+4],AX
   253                                 
   254 000001E0 8B1D[00000000]          mov EBX,[LBR]
   255 000001E6 8A83[00000000]          mov AL,[LINE+EBX]
   256 000001EC 6698                    cbw
   257 000001EE 43                      inc EBX
   258 000001EF 891D[00000000]          mov [LBR],EBX
   259 000001F5 66A3[02000000]          mov [RO+2],AX
   260                                 
   261 000001FB 8B1D[00000000]          mov EBX,[LBR]
   262 00000201 8A83[00000000]          mov AL,[LINE+EBX]
   263 00000207 6698                    cbw
   264 00000209 43                      inc EBX
   265 0000020A 891D[00000000]          mov [LBR],EBX
   266 00000210 66A3[02000000]          mov [RP+2],AX
   267                                 
   268 00000216 8B1D[00000000]          mov EBX,[LBR]
   269 0000021C 8A83[00000000]          mov AL,[LINE+EBX]
   270 00000222 6698                    cbw
   271 00000224 43                      inc EBX
   272 00000225 891D[00000000]          mov [LBR],EBX
   273 0000022B 66A3[02000000]          mov [RQ+2],AX
   274                                 
   275 00000231 8B1D[00000000]          mov EBX,[LBR]
   276 00000237 8A83[00000000]          mov AL,[LINE+EBX]
   277 0000023D 6698                    cbw
   278 0000023F 43                      inc EBX
   279 00000240 891D[00000000]          mov [LBR],EBX
   280 00000246 66A3[02000000]          mov [RR+2],AX
   281                                 
   282 0000024C 6631C0                  xor AX,AX
   283 0000024F 66A3[00000000]          mov [RR],AX
   284                                 
   285 00000255 66B80400                mov AX,4
   286 00000259 6683C004                add AX,4
   287 0000025D 66A3[00000000]          mov [R4],AX
   288                                 
   289 00000263 66A1[00000000]          mov AX,[RF]
   290 00000269 6683C004                add AX,4
   291 0000026D 66A3[00000000]          mov [R8],AX
   292                                 
   293 00000273 B8[00000000]            mov EAX,G1
   294 00000278 2D[00000000]            sub EAX,progr
   295 0000027D 66A3[00000000]          mov [RD],AX
   296 00000283 EBFE                    jmp L01
   297                                 G1:
   298                                 
   299                                 
   300                                 L01:
   301                                 
   302 00000285 66A1[00000000]          mov AX,[RA]
   303 0000028B 98                      cwde
   304 0000028C 05[00000000]            add EAX,list
   305 00000291 89C3                    mov EBX,EAX
   306 00000293 668B03                  mov AX,[EBX]
   307 00000296 66A3[00000000]          mov [RI],AX
   308 0000029C 668B4302                mov AX,[EBX+2]
   309 000002A0 6689C2                  mov DX,AX
   310 000002A3 6683E203                and DX,3
   311 000002A7 668915[04000000]        mov [RI+4],DX
   312 000002AE 66C1F802                sar AX,2
   313 000002B2 66A3[02000000]          mov [RI+2],AX
   314                                 
   315 000002B8 98                      cwde
   316 000002B9 890424                  mov [ESP],EAX
   317 000002BC E8(F6FFFFFF)            call iread
   318 000002C1 66A3[04000000]          mov [RI+4],AX
   319                                 
   320 000002C7 6609C0                  or AX,AX
   321 000002CA 0F8552400000            jnz L98
   322                                 
   323 000002D0 66A1[00000000]          mov AX,[RC]
   324 000002D6 66A3[00000000]          mov [RI],AX
   325                                 
   326 000002DC 6631C0                  xor AX,AX
   327 000002DF 66A3[02000000]          mov [RY+2],AX
   328                                 
   329 000002E5 66A1[00000000]          mov AX,[RC]
   330 000002EB 66A3[00000000]          mov [RY],AX
   331                                 
   332 000002F1 66A1[00000000]          mov AX,[RM]
   333 000002F7 6609C0                  or AX,AX
   334 000002FA 7407                    jz L02
   335                                 
   336 000002FC 66FF0D[00000000]        dec word [RM]
   337                                 
   338 00000303 EB7E                    jmp L01
   339                                 
   340                                 
   341                                 L02:
   342                                 
   343 00000305 66A1[00000000]          mov AX,[RI]
   344 0000030B 66A3[00000000]          mov [R9],AX
   345                                 
   346 00000311 8B1D[00000000]          mov EBX,[LBR]
   347 00000317 8A83[00000000]          mov AL,[LINE+EBX]
   348 0000031D 6698                    cbw
   349 0000031F 43                      inc EBX
   350 00000320 891D[00000000]          mov [LBR],EBX
   351 00000326 66A3[02000000]          mov [RI+2],AX
   352                                 
   353 0000032C 66A1[00000000]          mov AX,[R9]
   354 00000332 6683E804                sub AX,4
   355 00000336 66A3[00000000]          mov [RI],AX
   356                                 
   357 0000033C 66A1[00000000]          mov AX,[R8]
   358 00000342 663B05[00000000]        cmp AX,[RI]
   359 00000349 0F8D923F0000            jge L97
   360                                 
   361 0000034F 66A1[00000000]          mov AX,[R9]
   362 00000355 98                      cwde
   363 00000356 05[00000000]            add EAX,list
   364 0000035B 89C3                    mov EBX,EAX
   365 0000035D 66A1[02000000]          mov AX,[RI+2]
   366 00000363 66C1E002                sal AX,2
   367 00000367 660B05[04000000]        or AX,[RI+4]
   368 0000036E C1E010                  sal EAX,16
   369 00000371 66A1[00000000]          mov AX,[RI]
   370 00000377 8903                    mov [EBX],EAX
   371                                 
   372 00000379 66A1[02000000]          mov AX,[RI+2]
   373 0000037F 663B05[02000000]        cmp AX,[RL+2]
   374 00000386 0F84D9000000            jz L04
   375                                 
   376 0000038C 663B05[02000000]        cmp AX,[RA+2]
   377 00000393 744D                    jz L03
   378                                 
   379 00000395 66FF05[02000000]        inc word [RY+2]
   380                                 
   381 0000039C 663B05[02000000]        cmp AX,[RB+2]
   382 000003A3 0F8556FFFFFF            jnz L02
   383                                 
   384 000003A9 66A1[00000000]          mov AX,[RI]
   385 000003AF 66A3[00000000]          mov [RB],AX
   386                                 
   387 000003B5 66A1[00000000]          mov AX,[R9]
   388 000003BB 98                      cwde
   389 000003BC 05[00000000]            add EAX,list
   390 000003C1 89C3                    mov EBX,EAX
   391 000003C3 66A1[02000000]          mov AX,[RB+2]
   392 000003C9 66C1E002                sal AX,2
   393 000003CD 660B05[04000000]        or AX,[RB+4]
   394 000003D4 C1E010                  sal EAX,16
   395 000003D7 66A1[00000000]          mov AX,[RB]
   396 000003DD 8903                    mov [EBX],EAX
   397                                 
   398 000003DF E91CFFFFFF              jmp L02
   399                                 
   400                                 
   401                                 L03:
   402                                 
   403 000003E4 66A1[00000000]          mov AX,[RI]
   404 000003EA 66A3[00000000]          mov [R9],AX
   405                                 
   406 000003F0 8B1D[00000000]          mov EBX,[LBR]
   407 000003F6 8A83[00000000]          mov AL,[LINE+EBX]
   408 000003FC 6698                    cbw
   409 000003FE 43                      inc EBX
   410 000003FF 891D[00000000]          mov [LBR],EBX
   411 00000405 66A3[02000000]          mov [RI+2],AX
   412                                 
   413 0000040B 66A1[00000000]          mov AX,[R9]
   414 00000411 6683E804                sub AX,4
   415 00000415 66A3[00000000]          mov [RI],AX
   416                                 
   417 0000041B 66A1[00000000]          mov AX,[R9]
   418 00000421 98                      cwde
   419 00000422 05[00000000]            add EAX,list
   420 00000427 89C3                    mov EBX,EAX
   421 00000429 66A1[02000000]          mov AX,[RI+2]
   422 0000042F 66C1E002                sal AX,2
   423 00000433 660B05[04000000]        or AX,[RI+4]
   424 0000043A C1E010                  sal EAX,16
   425 0000043D 66A1[00000000]          mov AX,[RI]
   426 00000443 8903                    mov [EBX],EAX
   427                                 
   428 00000445 66A1[00000000]          mov AX,[R8]
   429 0000044B 663B05[00000000]        cmp AX,[RI]
   430 00000452 0F8D893E0000            jge L97
   431                                 
   432 00000458 66A1[02000000]          mov AX,[RI+2]
   433 0000045E 663B05[02000000]        cmp AX,[RL+2]
   434 00000465 0F8573FFFFFF            jnz L03
   435                                 
   436                                 
   437                                 L04:
   438                                 
   439 0000046B 66A1[00000000]          mov AX,[R9]
   440 00000471 6683E804                sub AX,4
   441 00000475 66A3[00000000]          mov [RU],AX
   442                                 
   443 0000047B 98                      cwde
   444 0000047C 05[00000000]            add EAX,list
   445 00000481 89C3                    mov EBX,EAX
   446 00000483 B803000F00              mov EAX,0xF0003
   447 00000488 8903                    mov [EBX],EAX
   448                                 
   449 0000048A 66A1[00000000]          mov AX,[RU]
   450 00000490 6683E804                sub AX,4
   451 00000494 66A3[00000000]          mov [RU],AX
   452                                 
   453 0000049A 98                      cwde
   454 0000049B 05[00000000]            add EAX,list
   455 000004A0 89C3                    mov EBX,EAX
   456 000004A2 B803000F00              mov EAX,0xF0003
   457 000004A7 8903                    mov [EBX],EAX
   458                                 
   459 000004A9 66A1[00000000]          mov AX,[RU]
   460 000004AF 6683E804                sub AX,4
   461 000004B3 66A3[00000000]          mov [RU],AX
   462                                 
   463 000004B9 98                      cwde
   464 000004BA 05[00000000]            add EAX,list
   465 000004BF 89C3                    mov EBX,EAX
   466 000004C1 B803000F00              mov EAX,0xF0003
   467 000004C6 8903                    mov [EBX],EAX
   468                                 
   469 000004C8 66A1[00000000]          mov AX,[RU]
   470 000004CE 6683E804                sub AX,4
   471 000004D2 66A3[00000000]          mov [RU],AX
   472                                 
   473 000004D8 98                      cwde
   474 000004D9 05[00000000]            add EAX,list
   475 000004DE 89C3                    mov EBX,EAX
   476 000004E0 B803000F00              mov EAX,0xF0003
   477 000004E5 8903                    mov [EBX],EAX
   478                                 
   479 000004E7 66A1[00000000]          mov AX,[RU]
   480 000004ED 6683E804                sub AX,4
   481 000004F1 66A3[00000000]          mov [RU],AX
   482                                 
   483 000004F7 98                      cwde
   484 000004F8 05[00000000]            add EAX,list
   485 000004FD 89C3                    mov EBX,EAX
   486 000004FF B803000F00              mov EAX,0xF0003
   487 00000504 8903                    mov [EBX],EAX
   488                                 
   489 00000506 66A1[00000000]          mov AX,[RU]
   490 0000050C 6683E804                sub AX,4
   491 00000510 66A3[00000000]          mov [RU],AX
   492                                 
   493 00000516 98                      cwde
   494 00000517 05[00000000]            add EAX,list
   495 0000051C 89C3                    mov EBX,EAX
   496 0000051E B803000F00              mov EAX,0xF0003
   497 00000523 8903                    mov [EBX],EAX
   498                                 
   499 00000525 66A1[00000000]          mov AX,[RU]
   500 0000052B 6683E804                sub AX,4
   501 0000052F 66A3[00000000]          mov [RU],AX
   502                                 
   503 00000535 98                      cwde
   504 00000536 05[00000000]            add EAX,list
   505 0000053B 89C3                    mov EBX,EAX
   506 0000053D B803000F00              mov EAX,0xF0003
   507 00000542 8903                    mov [EBX],EAX
   508                                 
   509 00000544 66A1[00000000]          mov AX,[RU]
   510 0000054A 6683E804                sub AX,4
   511 0000054E 66A3[00000000]          mov [RU],AX
   512                                 
   513 00000554 98                      cwde
   514 00000555 05[00000000]            add EAX,list
   515 0000055A 89C3                    mov EBX,EAX
   516 0000055C B803000F00              mov EAX,0xF0003
   517 00000561 8903                    mov [EBX],EAX
   518                                 
   519 00000563 66A1[00000000]          mov AX,[RU]
   520 00000569 6683E804                sub AX,4
   521 0000056D 66A3[00000000]          mov [RV],AX
   522                                 
   523 00000573 98                      cwde
   524 00000574 05[00000000]            add EAX,list
   525 00000579 89C3                    mov EBX,EAX
   526 0000057B B803000F00              mov EAX,0xF0003
   527 00000580 8903                    mov [EBX],EAX
   528                                 
   529 00000582 66A1[00000000]          mov AX,[RV]
   530 00000588 6683E804                sub AX,4
   531 0000058C 66A3[00000000]          mov [RU],AX
   532                                 
   533 00000592 66A3[00000000]          mov [R9],AX
   534                                 
   535 00000598 66A1[00000000]          mov AX,[R8]
   536 0000059E 663B05[00000000]        cmp AX,[R9]
   537 000005A5 0F8D363D0000            jge L97
   538                                 
   539 000005AB 66A1[00000000]          mov AX,[RA]
   540 000005B1 98                      cwde
   541 000005B2 05[00000000]            add EAX,list
   542 000005B7 89C3                    mov EBX,EAX
   543 000005B9 668B03                  mov AX,[EBX]
   544 000005BC 66A3[00000000]          mov [RW],AX
   545 000005C2 668B4302                mov AX,[EBX+2]
   546 000005C6 6689C2                  mov DX,AX
   547 000005C9 6683E203                and DX,3
   548 000005CD 668915[04000000]        mov [RW+4],DX
   549 000005D4 66C1F802                sar AX,2
   550 000005D8 66A3[02000000]          mov [RW+2],AX
   551                                 
   552 000005DE 66A1[00000000]          mov AX,[RY]
   553 000005E4 98                      cwde
   554 000005E5 05[00000000]            add EAX,list
   555 000005EA 89C3                    mov EBX,EAX
   556 000005EC 668B03                  mov AX,[EBX]
   557 000005EF 66A3[00000000]          mov [RX],AX
   558 000005F5 668B4302                mov AX,[EBX+2]
   559 000005F9 6689C2                  mov DX,AX
   560 000005FC 6683E203                and DX,3
   561 00000600 668915[04000000]        mov [RX+4],DX
   562 00000607 66C1F802                sar AX,2
   563 0000060B 66A3[02000000]          mov [RX+2],AX
   564                                 
   565 00000611 6631C0                  xor AX,AX
   566 00000614 66A3[04000000]          mov [RY+4],AX
   567                                 
   568 0000061A 66A1[00000000]          mov AX,[RA]
   569 00000620 66A3[00000000]          mov [RZ],AX
   570                                 
   571 00000626 B8[00000000]            mov EAX,G2
   572 0000062B 2D[00000000]            sub EAX,progr
   573 00000630 66A3[00000000]          mov [RB],AX
   574 00000636 E9412C0000              jmp L58
   575                                 G2:
   576                                 
   577 0000063B 66A1[04000000]          mov AX,[RB+4]
   578 00000641 6683F802                cmp AX,2
   579 00000645 0F84F9270000            jz L50
   580                                 
   581 0000064B 66A1[04000000]          mov AX,[RY+4]
   582 00000651 6609C0                  or AX,AX
   583 00000654 0F847E2B0000            jz L56
   584                                 
   585 0000065A 66A1[00000000]          mov AX,[R9]
   586 00000660 98                      cwde
   587 00000661 05[00000000]            add EAX,list
   588 00000666 89C3                    mov EBX,EAX
   589 00000668 B801000500              mov EAX,0x50001
   590 0000066D 8903                    mov [EBX],EAX
   591                                 
   592 0000066F 66A1[00000000]          mov AX,[R9]
   593 00000675 662B05[00000000]        sub AX,[RH]
   594 0000067C 66A3[00000000]          mov [R9],AX
   595                                 
   596 00000682 98                      cwde
   597 00000683 05[00000000]            add EAX,list
   598 00000688 89C3                    mov EBX,EAX
   599 0000068A 66A1[02000000]          mov AX,[RJ+2]
   600 00000690 66C1E002                sal AX,2
   601 00000694 660B05[04000000]        or AX,[RJ+4]
   602 0000069B C1E010                  sal EAX,16
   603 0000069E 66A1[00000000]          mov AX,[RJ]
   604 000006A4 8903                    mov [EBX],EAX
   605                                 
   606 000006A6 66A1[00000000]          mov AX,[R9]
   607 000006AC 660305[00000000]        add AX,[RH]
   608 000006B3 66A3[00000000]          mov [RJ],AX
   609                                 
   610 000006B9 66A1[00000000]          mov AX,[R9]
   611 000006BF 6683E804                sub AX,4
   612 000006C3 66A3[00000000]          mov [R9],AX
   613                                 
   614 000006C9 98                      cwde
   615 000006CA 05[00000000]            add EAX,list
   616 000006CF 89C3                    mov EBX,EAX
   617 000006D1 66A1[02000000]          mov AX,[RC+2]
   618 000006D7 66C1E002                sal AX,2
   619 000006DB 660B05[04000000]        or AX,[RC+4]
   620 000006E2 C1E010                  sal EAX,16
   621 000006E5 66A1[00000000]          mov AX,[RC]
   622 000006EB 8903                    mov [EBX],EAX
   623                                 
   624 000006ED 66A1[00000000]          mov AX,[R9]
   625 000006F3 6683E804                sub AX,4
   626 000006F7 66A3[00000000]          mov [R9],AX
   627                                 
   628 000006FD 98                      cwde
   629 000006FE 05[00000000]            add EAX,list
   630 00000703 89C3                    mov EBX,EAX
   631 00000705 66A1[02000000]          mov AX,[RD+2]
   632 0000070B 66C1E002                sal AX,2
   633 0000070F 660B05[04000000]        or AX,[RD+4]
   634 00000716 C1E010                  sal EAX,16
   635 00000719 66A1[00000000]          mov AX,[RD]
   636 0000071F 8903                    mov [EBX],EAX
   637                                 
   638 00000721 66A1[00000000]          mov AX,[R9]
   639 00000727 6683E804                sub AX,4
   640 0000072B 66A3[00000000]          mov [R9],AX
   641                                 
   642 00000731 98                      cwde
   643 00000732 05[00000000]            add EAX,list
   644 00000737 89C3                    mov EBX,EAX
   645 00000739 66A1[02000000]          mov AX,[RK+2]
   646 0000073F 66C1E002                sal AX,2
   647 00000743 660B05[04000000]        or AX,[RK+4]
   648 0000074A C1E010                  sal EAX,16
   649 0000074D 66A1[00000000]          mov AX,[RK]
   650 00000753 8903                    mov [EBX],EAX
   651                                 
   652 00000755 66A1[00000000]          mov AX,[RU]
   653 0000075B 66A3[00000000]          mov [RK],AX
   654                                 
   655 00000761 66A1[00000000]          mov AX,[R9]
   656 00000767 6683E804                sub AX,4
   657 0000076B 66A3[00000000]          mov [R9],AX
   658                                 
   659 00000771 98                      cwde
   660 00000772 05[00000000]            add EAX,list
   661 00000777 89C3                    mov EBX,EAX
   662 00000779 66A1[02000000]          mov AX,[RR+2]
   663 0000077F 66C1E002                sal AX,2
   664 00000783 660B05[04000000]        or AX,[RR+4]
   665 0000078A C1E010                  sal EAX,16
   666 0000078D 66A1[00000000]          mov AX,[RR]
   667 00000793 8903                    mov [EBX],EAX
   668                                 
   669 00000795 6631C0                  xor AX,AX
   670 00000798 66A3[00000000]          mov [RR],AX
   671                                 
   672 0000079E 66A1[00000000]          mov AX,[R9]
   673 000007A4 6683E804                sub AX,4
   674 000007A8 66A3[00000000]          mov [RC],AX
   675                                 
   676 000007AE 66A1[00000000]          mov AX,[R8]
   677 000007B4 663B05[00000000]        cmp AX,[RC]
   678 000007BB 0F8D203B0000            jge L97
   679                                 
   680 000007C1 B8[00000000]            mov EAX,G3
   681 000007C6 2D[00000000]            sub EAX,progr
   682 000007CB 66A3[00000000]          mov [RD],AX
   683 000007D1 EBFE                    jmp L05
   684                                 G3:
   685                                 
   686                                 
   687                                 L05:
   688                                 
   689 000007D3 66A1[00000000]          mov AX,[RC]
   690 000007D9 66A3[00000000]          mov [R9],AX
   691                                 
   692 000007DF 6631C0                  xor AX,AX
   693 000007E2 66A3[00000000]          mov [RY],AX
   694                                 
   695                                 
   696                                 L06:
   697                                 
   698 000007E8 66A1[00000000]          mov AX,[RM]
   699 000007EE 6609C0                  or AX,AX
   700 000007F1 0F849C010000            jz L07
   701                                 
   702 000007F7 66A1[00000000]          mov AX,[RK]
   703 000007FD 6683C004                add AX,4
   704 00000801 66A3[00000000]          mov [RZ],AX
   705                                 
   706 00000807 66A1[00000000]          mov AX,[RK]
   707 0000080D 98                      cwde
   708 0000080E 05[00000000]            add EAX,list
   709 00000813 89C3                    mov EBX,EAX
   710 00000815 668B03                  mov AX,[EBX]
   711 00000818 66A3[00000000]          mov [RK],AX
   712 0000081E 668B4302                mov AX,[EBX+2]
   713 00000822 6689C2                  mov DX,AX
   714 00000825 6683E203                and DX,3
   715 00000829 668915[04000000]        mov [RK+4],DX
   716 00000830 66C1F802                sar AX,2
   717 00000834 66A3[02000000]          mov [RK+2],AX
   718                                 
   719 0000083A 66A1[00000000]          mov AX,[RK]
   720 00000840 98                      cwde
   721 00000841 05[00000000]            add EAX,list
   722 00000846 89C3                    mov EBX,EAX
   723 00000848 668B03                  mov AX,[EBX]
   724 0000084B 66A3[00000000]          mov [RI],AX
   725 00000851 668B4302                mov AX,[EBX+2]
   726 00000855 6689C2                  mov DX,AX
   727 00000858 6683E203                and DX,3
   728 0000085C 668915[04000000]        mov [RI+4],DX
   729 00000863 66C1F802                sar AX,2
   730 00000867 66A3[02000000]          mov [RI+2],AX
   731                                 
   732 0000086D 6683F801                cmp AX,1
   733 00000871 0F8427020000            jz L08
   734                                 
   735 00000877 66FF0D[00000000]        dec word [RM]
   736                                 
   737 0000087E 66A1[00000000]          mov AX,[RZ]
   738 00000884 98                      cwde
   739 00000885 05[00000000]            add EAX,list
   740 0000088A 89C3                    mov EBX,EAX
   741 0000088C 668B03                  mov AX,[EBX]
   742 0000088F 66A3[00000000]          mov [RZ],AX
   743 00000895 668B4302                mov AX,[EBX+2]
   744 00000899 6689C2                  mov DX,AX
   745 0000089C 6683E203                and DX,3
   746 000008A0 668915[04000000]        mov [RZ+4],DX
   747 000008A7 66C1F802                sar AX,2
   748 000008AB 66A3[02000000]          mov [RZ+2],AX
   749                                 
   750 000008B1 66A1[04000000]          mov AX,[RZ+4]
   751 000008B7 6683F803                cmp AX,3
   752 000008BB 0F8521FFFFFF            jnz L06
   753                                 
   754 000008C1 66FF05[00000000]        inc word [RY]
   755                                 
   756 000008C8 66A1[02000000]          mov AX,[RZ+2]
   757 000008CE 6683F807                cmp AX,7
   758 000008D2 0F840AFFFFFF            jz L06
   759                                 
   760 000008D8 66FF0D[00000000]        dec word [RY]
   761                                 
   762 000008DF 6683F808                cmp AX,8
   763 000008E3 0F85F9FEFFFF            jnz L06
   764                                 
   765 000008E9 66FF0D[00000000]        dec word [RY]
   766                                 
   767 000008F0 66A1[00000000]          mov AX,[RY]
   768 000008F6 6609C0                  or AX,AX
   769 000008F9 0F8DE3FEFFFF            jge L06
   770                                 
   771 000008FF 66A1[00000000]          mov AX,[RR]
   772 00000905 6609C0                  or AX,AX
   773 00000908 0F84D4FEFFFF            jz L06
   774                                 
   775 0000090E 6683E804                sub AX,4
   776 00000912 66A3[00000000]          mov [RU],AX
   777                                 
   778 00000918 98                      cwde
   779 00000919 05[00000000]            add EAX,list
   780 0000091E 89C3                    mov EBX,EAX
   781 00000920 668B03                  mov AX,[EBX]
   782 00000923 66A3[00000000]          mov [RY],AX
   783 00000929 668B4302                mov AX,[EBX+2]
   784 0000092D 6689C2                  mov DX,AX
   785 00000930 6683E203                and DX,3
   786 00000934 668915[04000000]        mov [RY+4],DX
   787 0000093B 66C1F802                sar AX,2
   788 0000093F 66A3[02000000]          mov [RY+2],AX
   789                                 
   790 00000945 66A1[04000000]          mov AX,[RY+4]
   791 0000094B 6683F801                cmp AX,1
   792 0000094F 0F85BC230000            jnz L49
   793                                 
   794 00000955 66A1[00000000]          mov AX,[RR]
   795 0000095B 66A3[00000000]          mov [RC],AX
   796                                 
   797 00000961 66A1[00000000]          mov AX,[RR]
   798 00000967 98                      cwde
   799 00000968 05[00000000]            add EAX,list
   800 0000096D 89C3                    mov EBX,EAX
   801 0000096F 668B03                  mov AX,[EBX]
   802 00000972 66A3[00000000]          mov [RR],AX
   803 00000978 668B4302                mov AX,[EBX+2]
   804 0000097C 6689C2                  mov DX,AX
   805 0000097F 6683E203                and DX,3
   806 00000983 668915[04000000]        mov [RR+4],DX
   807 0000098A 66C1F802                sar AX,2
   808 0000098E 66A3[02000000]          mov [RR+2],AX
   809                                 
   810 00000994 E935FEFFFF              jmp L05
   811                                 
   812                                 
   813                                 L07:
   814                                 
   815 00000999 66A1[00000000]          mov AX,[RK]
   816 0000099F 6683C004                add AX,4
   817 000009A3 66A3[00000000]          mov [RK],AX
   818                                 
   819 000009A9 98                      cwde
   820 000009AA 05[00000000]            add EAX,list
   821 000009AF 89C3                    mov EBX,EAX
   822 000009B1 668B03                  mov AX,[EBX]
   823 000009B4 66A3[00000000]          mov [RI],AX
   824 000009BA 668B4302                mov AX,[EBX+2]
   825 000009BE 6689C2                  mov DX,AX
   826 000009C1 6683E203                and DX,3
   827 000009C5 668915[04000000]        mov [RI+4],DX
   828 000009CC 66C1F802                sar AX,2
   829 000009D0 66A3[02000000]          mov [RI+2],AX
   830                                 
   831 000009D6 66A1[04000000]          mov AX,[RI+4]
   832 000009DC 6683F802                cmp AX,2
   833 000009E0 0F84FA010000            jz L09
   834                                 
   835 000009E6 6683F803                cmp AX,3
   836 000009EA 0F84C20C0000            jz L22
   837                                 
   838 000009F0 66A1[00000000]          mov AX,[R9]
   839 000009F6 6683E804                sub AX,4
   840 000009FA 66A3[00000000]          mov [RI],AX
   841                                 
   842 00000A00 66A1[00000000]          mov AX,[R9]
   843 00000A06 98                      cwde
   844 00000A07 05[00000000]            add EAX,list
   845 00000A0C 89C3                    mov EBX,EAX
   846 00000A0E 66A1[02000000]          mov AX,[RI+2]
   847 00000A14 66C1E002                sal AX,2
   848 00000A18 660B05[04000000]        or AX,[RI+4]
   849 00000A1F C1E010                  sal EAX,16
   850 00000A22 66A1[00000000]          mov AX,[RI]
   851 00000A28 8903                    mov [EBX],EAX
   852                                 
   853 00000A2A 66A1[00000000]          mov AX,[RI]
   854 00000A30 66A3[00000000]          mov [R9],AX
   855                                 
   856 00000A36 66A1[00000000]          mov AX,[R8]
   857 00000A3C 663B05[00000000]        cmp AX,[R9]
   858 00000A43 0F8D98380000            jge L97
   859                                 
   860 00000A49 66A1[04000000]          mov AX,[RI+4]
   861 00000A4F 6609C0                  or AX,AX
   862 00000A52 0F843BFFFFFF            jz L07
   863                                 
   864 00000A58 66A1[00000000]          mov AX,[RC]
   865 00000A5E 662B05[00000000]        sub AX,[R9]
   866 00000A65 66A3[00000000]          mov [RY],AX
   867                                 
   868 00000A6B 66C1F802                sar AX,2
   869 00000A6F 66A3[00000000]          mov [RY],AX
   870                                 
   871 00000A75 66FF0D[00000000]        dec word [RY]
   872                                 
   873 00000A7C 66A1[00000000]          mov AX,[RY]
   874 00000A82 66A3[02000000]          mov [RY+2],AX
   875                                 
   876 00000A88 66A1[00000000]          mov AX,[RC]
   877 00000A8E 66A3[00000000]          mov [RY],AX
   878                                 
   879 00000A94 66A1[02000000]          mov AX,[RI+2]
   880 00000A9A 6683F801                cmp AX,1
   881 00000A9E 0F85C1F9FFFF            jnz L04
   882                                 
   883                                 
   884                                 L08:
   885                                 
   886 00000AA4 66A1[00000000]          mov AX,[RJ]
   887 00000AAA 662B05[00000000]        sub AX,[RH]
   888 00000AB1 66A3[00000000]          mov [R9],AX
   889                                 
   890 00000AB7 98                      cwde
   891 00000AB8 05[00000000]            add EAX,list
   892 00000ABD 89C3                    mov EBX,EAX
   893 00000ABF 668B03                  mov AX,[EBX]
   894 00000AC2 66A3[00000000]          mov [RJ],AX
   895 00000AC8 668B4302                mov AX,[EBX+2]
   896 00000ACC 6689C2                  mov DX,AX
   897 00000ACF 6683E203                and DX,3
   898 00000AD3 668915[04000000]        mov [RJ+4],DX
   899 00000ADA 66C1F802                sar AX,2
   900 00000ADE 66A3[02000000]          mov [RJ+2],AX
   901                                 
   902 00000AE4 66A1[00000000]          mov AX,[R9]
   903 00000AEA 6683E804                sub AX,4
   904 00000AEE 66A3[00000000]          mov [R9],AX
   905                                 
   906 00000AF4 98                      cwde
   907 00000AF5 05[00000000]            add EAX,list
   908 00000AFA 89C3                    mov EBX,EAX
   909 00000AFC 668B03                  mov AX,[EBX]
   910 00000AFF 66A3[00000000]          mov [RC],AX
   911 00000B05 668B4302                mov AX,[EBX+2]
   912 00000B09 6689C2                  mov DX,AX
   913 00000B0C 6683E203                and DX,3
   914 00000B10 668915[04000000]        mov [RC+4],DX
   915 00000B17 66C1F802                sar AX,2
   916 00000B1B 66A3[02000000]          mov [RC+2],AX
   917                                 
   918 00000B21 66A1[00000000]          mov AX,[R9]
   919 00000B27 6683E804                sub AX,4
   920 00000B2B 66A3[00000000]          mov [R9],AX
   921                                 
   922 00000B31 98                      cwde
   923 00000B32 05[00000000]            add EAX,list
   924 00000B37 89C3                    mov EBX,EAX
   925 00000B39 668B03                  mov AX,[EBX]
   926 00000B3C 66A3[00000000]          mov [RD],AX
   927 00000B42 668B4302                mov AX,[EBX+2]
   928 00000B46 6689C2                  mov DX,AX
   929 00000B49 6683E203                and DX,3
   930 00000B4D 668915[04000000]        mov [RD+4],DX
   931 00000B54 66C1F802                sar AX,2
   932 00000B58 66A3[02000000]          mov [RD+2],AX
   933                                 
   934 00000B5E 66A1[00000000]          mov AX,[R9]
   935 00000B64 6683E804                sub AX,4
   936 00000B68 66A3[00000000]          mov [R9],AX
   937                                 
   938 00000B6E 98                      cwde
   939 00000B6F 05[00000000]            add EAX,list
   940 00000B74 89C3                    mov EBX,EAX
   941 00000B76 668B03                  mov AX,[EBX]
   942 00000B79 66A3[00000000]          mov [RK],AX
   943 00000B7F 668B4302                mov AX,[EBX+2]
   944 00000B83 6689C2                  mov DX,AX
   945 00000B86 6683E203                and DX,3
   946 00000B8A 668915[04000000]        mov [RK+4],DX
   947 00000B91 66C1F802                sar AX,2
   948 00000B95 66A3[02000000]          mov [RK+2],AX
   949                                 
   950 00000B9B 66A1[00000000]          mov AX,[R9]
   951 00000BA1 6683E804                sub AX,4
   952 00000BA5 66A3[00000000]          mov [R9],AX
   953                                 
   954 00000BAB 98                      cwde
   955 00000BAC 05[00000000]            add EAX,list
   956 00000BB1 89C3                    mov EBX,EAX
   957 00000BB3 668B03                  mov AX,[EBX]
   958 00000BB6 66A3[00000000]          mov [RR],AX
   959 00000BBC 668B4302                mov AX,[EBX+2]
   960 00000BC0 6689C2                  mov DX,AX
   961 00000BC3 6683E203                and DX,3
   962 00000BC7 668915[04000000]        mov [RR+4],DX
   963 00000BCE 66C1F802                sar AX,2
   964 00000BD2 66A3[02000000]          mov [RR+2],AX
   965                                 
   966 00000BD8 66A1[00000000]          mov AX,[RD]
   967 00000BDE 98                      cwde
   968 00000BDF 05[00000000]            add EAX,progr
   969 00000BE4 FFE0                    jmp EAX
   970                                 
   971                                 
   972                                 L09:
   973                                 
   974 00000BE6 66A1[00000000]          mov AX,[RJ]
   975 00000BEC 660305[00000000]        add AX,[RI]
   976 00000BF3 66A3[00000000]          mov [RV],AX
   977                                 
   978 00000BF9 66A1[02000000]          mov AX,[RI+2]
   979 00000BFF 6683F806                cmp AX,6
   980 00000C03 0F84F2090000            jz L21
   981                                 
   982 00000C09 66A1[00000000]          mov AX,[RV]
   983 00000C0F 98                      cwde
   984 00000C10 05[00000000]            add EAX,list
   985 00000C15 89C3                    mov EBX,EAX
   986 00000C17 668B03                  mov AX,[EBX]
   987 00000C1A 66A3[00000000]          mov [RY],AX
   988 00000C20 668B4302                mov AX,[EBX+2]
   989 00000C24 6689C2                  mov DX,AX
   990 00000C27 6683E203                and DX,3
   991 00000C2B 668915[04000000]        mov [RY+4],DX
   992 00000C32 66C1F802                sar AX,2
   993 00000C36 66A3[02000000]          mov [RY+2],AX
   994                                 
   995 00000C3C 66A1[02000000]          mov AX,[RI+2]
   996 00000C42 6683F807                cmp AX,7
   997 00000C46 0F84C4190000            jz L45
   998                                 
   999 00000C4C 66A1[04000000]          mov AX,[RY+4]
  1000 00000C52 6683F803                cmp AX,3
  1001 00000C56 0F84090B0000            jz L23
  1002                                 
  1003 00000C5C 66A1[00000000]          mov AX,[RY]
  1004 00000C62 98                      cwde
  1005 00000C63 05[00000000]            add EAX,list
  1006 00000C68 89C3                    mov EBX,EAX
  1007 00000C6A 668B03                  mov AX,[EBX]
  1008 00000C6D 66A3[00000000]          mov [RX],AX
  1009 00000C73 668B4302                mov AX,[EBX+2]
  1010 00000C77 6689C2                  mov DX,AX
  1011 00000C7A 6683E203                and DX,3
  1012 00000C7E 668915[04000000]        mov [RX+4],DX
  1013 00000C85 66C1F802                sar AX,2
  1014 00000C89 66A3[02000000]          mov [RX+2],AX
  1015                                 
  1016 00000C8F 66A1[02000000]          mov AX,[RI+2]
  1017 00000C95 6609C0                  or AX,AX
  1018 00000C98 0F8465010000            jz L11
  1019                                 
  1020 00000C9E 6683F801                cmp AX,1
  1021 00000CA2 0F84AB000000            jz L10
  1022                                 
  1023 00000CA8 6683F802                cmp AX,2
  1024 00000CAC 0F8487020000            jz L12
  1025                                 
  1026 00000CB2 6683F804                cmp AX,4
  1027 00000CB6 0F8456050000            jz L15
  1028                                 
  1029 00000CBC 66A1[00000000]          mov AX,[RY]
  1030 00000CC2 66A3[00000000]          mov [RX],AX
  1031                                 
  1032 00000CC8 66A1[02000000]          mov AX,[RI+2]
  1033 00000CCE 6683F803                cmp AX,3
  1034 00000CD2 0F846C080000            jz L20
  1035                                 
  1036 00000CD8 66A1[02000000]          mov AX,[RY+2]
  1037 00000CDE 66A3[00000000]          mov [RN],AX
  1038                                 
  1039 00000CE4 66A1[02000000]          mov AX,[RI+2]
  1040 00000CEA 6683F805                cmp AX,5
  1041 00000CEE 0F84F9060000            jz L18
  1042                                 
  1043 00000CF4 66A1[02000000]          mov AX,[RY+2]
  1044 00000CFA 6683F801                cmp AX,1
  1045 00000CFE 0F85610A0000            jnz L23
  1046                                 
  1047 00000D04 66A1[02000000]          mov AX,[RX+2]
  1048 00000D0A 66A3[00000000]          mov [RN],AX
  1049                                 
  1050 00000D10 66A1[02000000]          mov AX,[RI+2]
  1051 00000D16 6683F808                cmp AX,8
  1052 00000D1A 0F84CD060000            jz L18
  1053                                 
  1054 00000D20 BB[00000000]            mov EBX,MB
  1055 00000D25 C7430A434F4E56          mov dword [EBX+10],"CONV"
  1056 00000D2C 66B80400                mov AX,4
  1057 00000D30 98                      cwde
  1058 00000D31 890424                  mov [ESP],EAX
  1059 00000D34 E8(F6FFFFFF)            call iprnt
  1060 00000D39 66A3[04000000]          mov [R4+4],AX
  1061                                 
  1062 00000D3F B8[00000000]            mov EAX,G4
  1063 00000D44 2D[00000000]            sub EAX,progr
  1064 00000D49 66A3[00000000]          mov [RB],AX
  1065 00000D4F E928340000              jmp L94
  1066                                 G4:
  1067                                 
  1068 00000D54 E93BFCFFFF              jmp L07
  1069                                 
  1070                                 
  1071                                 L10:
  1072                                 
  1073 00000D59 66A1[00000000]          mov AX,[R9]
  1074 00000D5F 6683C004                add AX,4
  1075 00000D63 66A3[00000000]          mov [RV],AX
  1076                                 
  1077 00000D69 66A1[00000000]          mov AX,[RF]
  1078 00000D6F 98                      cwde
  1079 00000D70 05[00000000]            add EAX,list
  1080 00000D75 89C3                    mov EBX,EAX
  1081 00000D77 668B03                  mov AX,[EBX]
  1082 00000D7A 66A3[00000000]          mov [RW],AX
  1083 00000D80 668B4302                mov AX,[EBX+2]
  1084 00000D84 6689C2                  mov DX,AX
  1085 00000D87 6683E203                and DX,3
  1086 00000D8B 668915[04000000]        mov [RW+4],DX
  1087 00000D92 66C1F802                sar AX,2
  1088 00000D96 66A3[02000000]          mov [RW+2],AX
  1089                                 
  1090 00000D9C 66A1[00000000]          mov AX,[RF]
  1091 00000DA2 66A3[00000000]          mov [RZ],AX
  1092                                 
  1093 00000DA8 B8[00000000]            mov EAX,G5
  1094 00000DAD 2D[00000000]            sub EAX,progr
  1095 00000DB2 66A3[00000000]          mov [RB],AX
  1096 00000DB8 E9BF240000              jmp L58
  1097                                 G5:
  1098                                 
  1099 00000DBD 66A1[04000000]          mov AX,[RY+4]
  1100 00000DC3 6683F801                cmp AX,1
  1101 00000DC7 0F85C6FBFFFF            jnz L07
  1102                                 
  1103 00000DCD 6631C0                  xor AX,AX
  1104 00000DD0 66A3[04000000]          mov [RI+4],AX
  1105                                 
  1106 00000DD6 66A1[00000000]          mov AX,[RY]
  1107 00000DDC 98                      cwde
  1108 00000DDD 05[00000000]            add EAX,list
  1109 00000DE2 89C3                    mov EBX,EAX
  1110 00000DE4 668B03                  mov AX,[EBX]
  1111 00000DE7 66A3[00000000]          mov [RX],AX
  1112 00000DED 668B4302                mov AX,[EBX+2]
  1113 00000DF1 6689C2                  mov DX,AX
  1114 00000DF4 6683E203                and DX,3
  1115 00000DF8 668915[04000000]        mov [RX+4],DX
  1116 00000DFF 66C1F802                sar AX,2
  1117 00000E03 66A3[02000000]          mov [RX+2],AX
  1118                                 
  1119                                 
  1120                                 L11:
  1121                                 
  1122 00000E09 66A1[02000000]          mov AX,[RY+2]
  1123 00000E0F 6609C0                  or AX,AX
  1124 00000E12 0F847BFBFFFF            jz L07
  1125                                 
  1126 00000E18 66A1[00000000]          mov AX,[RX]
  1127 00000E1E 98                      cwde
  1128 00000E1F 05[00000000]            add EAX,list
  1129 00000E24 89C3                    mov EBX,EAX
  1130 00000E26 668B03                  mov AX,[EBX]
  1131 00000E29 66A3[00000000]          mov [RI],AX
  1132 00000E2F 668B4302                mov AX,[EBX+2]
  1133 00000E33 6689C2                  mov DX,AX
  1134 00000E36 6683E203                and DX,3
  1135 00000E3A 668915[04000000]        mov [RI+4],DX
  1136 00000E41 66C1F802                sar AX,2
  1137 00000E45 66A3[02000000]          mov [RI+2],AX
  1138                                 
  1139 00000E4B 66A1[00000000]          mov AX,[R9]
  1140 00000E51 6683E804                sub AX,4
  1141 00000E55 66A3[00000000]          mov [RX],AX
  1142                                 
  1143 00000E5B 66A1[00000000]          mov AX,[R9]
  1144 00000E61 98                      cwde
  1145 00000E62 05[00000000]            add EAX,list
  1146 00000E67 89C3                    mov EBX,EAX
  1147 00000E69 66A1[02000000]          mov AX,[RX+2]
  1148 00000E6F 66C1E002                sal AX,2
  1149 00000E73 660B05[04000000]        or AX,[RX+4]
  1150 00000E7A C1E010                  sal EAX,16
  1151 00000E7D 66A1[00000000]          mov AX,[RX]
  1152 00000E83 8903                    mov [EBX],EAX
  1153                                 
  1154 00000E85 66A1[00000000]          mov AX,[RX]
  1155 00000E8B 66A3[00000000]          mov [R9],AX
  1156                                 
  1157 00000E91 66FF0D[02000000]        dec word [RY+2]
  1158                                 
  1159 00000E98 66A1[02000000]          mov AX,[RY+2]
  1160 00000E9E 6609C0                  or AX,AX
  1161 00000EA1 0F84ECFAFFFF            jz L07
  1162                                 
  1163 00000EA7 66A1[00000000]          mov AX,[RI]
  1164 00000EAD 98                      cwde
  1165 00000EAE 05[00000000]            add EAX,list
  1166 00000EB3 89C3                    mov EBX,EAX
  1167 00000EB5 668B03                  mov AX,[EBX]
  1168 00000EB8 66A3[00000000]          mov [RX],AX
  1169 00000EBE 668B4302                mov AX,[EBX+2]
  1170 00000EC2 6689C2                  mov DX,AX
  1171 00000EC5 6683E203                and DX,3
  1172 00000EC9 668915[04000000]        mov [RX+4],DX
  1173 00000ED0 66C1F802                sar AX,2
  1174 00000ED4 66A3[02000000]          mov [RX+2],AX
  1175                                 
  1176 00000EDA 66A1[00000000]          mov AX,[R9]
  1177 00000EE0 6683E804                sub AX,4
  1178 00000EE4 66A3[00000000]          mov [RI],AX
  1179                                 
  1180 00000EEA 66A1[00000000]          mov AX,[R9]
  1181 00000EF0 98                      cwde
  1182 00000EF1 05[00000000]            add EAX,list
  1183 00000EF6 89C3                    mov EBX,EAX
  1184 00000EF8 66A1[02000000]          mov AX,[RI+2]
  1185 00000EFE 66C1E002                sal AX,2
  1186 00000F02 660B05[04000000]        or AX,[RI+4]
  1187 00000F09 C1E010                  sal EAX,16
  1188 00000F0C 66A1[00000000]          mov AX,[RI]
  1189 00000F12 8903                    mov [EBX],EAX
  1190                                 
  1191 00000F14 66A1[00000000]          mov AX,[RI]
  1192 00000F1A 66A3[00000000]          mov [R9],AX
  1193                                 
  1194 00000F20 66A1[00000000]          mov AX,[R8]
  1195 00000F26 663B05[00000000]        cmp AX,[R9]
  1196 00000F2D 0F8DAE330000            jge L97
  1197                                 
  1198 00000F33 66FF0D[02000000]        dec word [RY+2]
  1199                                 
  1200 00000F3A E9C5FEFFFF              jmp L11
  1201                                 
  1202                                 
  1203                                 L12:
  1204                                 
  1205 00000F3F 66B80200                mov AX,2
  1206 00000F43 66A3[04000000]          mov [RB+4],AX
  1207                                 
  1208 00000F49 66A1[00000000]          mov AX,[RF]
  1209 00000F4F 98                      cwde
  1210 00000F50 05[00000000]            add EAX,list
  1211 00000F55 89C3                    mov EBX,EAX
  1212 00000F57 668B03                  mov AX,[EBX]
  1213 00000F5A 66A3[00000000]          mov [RW],AX
  1214 00000F60 668B4302                mov AX,[EBX+2]
  1215 00000F64 6689C2                  mov DX,AX
  1216 00000F67 6683E203                and DX,3
  1217 00000F6B 668915[04000000]        mov [RW+4],DX
  1218 00000F72 66C1F802                sar AX,2
  1219 00000F76 66A3[02000000]          mov [RW+2],AX
  1220                                 
  1221 00000F7C 66A1[00000000]          mov AX,[RF]
  1222 00000F82 66A3[00000000]          mov [RZ],AX
  1223                                 
  1224 00000F88 B8[00000000]            mov EAX,G6
  1225 00000F8D 2D[00000000]            sub EAX,progr
  1226 00000F92 66A3[00000000]          mov [RB],AX
  1227 00000F98 E9DF220000              jmp L58
  1228                                 G6:
  1229                                 
  1230 00000F9D 6631C0                  xor AX,AX
  1231 00000FA0 66A3[04000000]          mov [RB+4],AX
  1232                                 
  1233 00000FA6 66A1[00000000]          mov AX,[RY]
  1234 00000FAC 98                      cwde
  1235 00000FAD 05[00000000]            add EAX,list
  1236 00000FB2 89C3                    mov EBX,EAX
  1237 00000FB4 668B03                  mov AX,[EBX]
  1238 00000FB7 66A3[00000000]          mov [RX],AX
  1239 00000FBD 668B4302                mov AX,[EBX+2]
  1240 00000FC1 6689C2                  mov DX,AX
  1241 00000FC4 6683E203                and DX,3
  1242 00000FC8 668915[04000000]        mov [RX+4],DX
  1243 00000FCF 66C1F802                sar AX,2
  1244 00000FD3 66A3[02000000]          mov [RX+2],AX
  1245                                 
  1246 00000FD9 66A1[04000000]          mov AX,[RY+4]
  1247 00000FDF 6683F801                cmp AX,1
  1248 00000FE3 0F841AFEFFFF            jz L11
  1249                                 
  1250 00000FE9 66A1[00000000]          mov AX,[R8]
  1251 00000FEF 66A3[00000000]          mov [RY],AX
  1252                                 
  1253 00000FF5 66B80100                mov AX,1
  1254 00000FF9 66A3[04000000]          mov [RY+4],AX
  1255                                 
  1256 00000FFF 66FF05[00000000]        inc word [RL]
  1257                                 
  1258 00001006 66A1[00000000]          mov AX,[RL]
  1259 0000100C 66A3[00000000]          mov [RX],AX
  1260                                 
  1261 00001012 66A1[00000000]          mov AX,[R9]
  1262 00001018 6683C004                add AX,4
  1263 0000101C 66A3[00000000]          mov [RW],AX
  1264                                 
  1265 00001022 6631C0                  xor AX,AX
  1266 00001025 66A3[02000000]          mov [RY+2],AX
  1267                                 
  1268                                 
  1269                                 L13:
  1270                                 
  1271 0000102B 66A1[00000000]          mov AX,[RX]
  1272 00001031 6699                    cwd
  1273 00001033 66F73D[00000000]        idiv word [R5]
  1274 0000103A 66A3[00000000]          mov [RV],AX
  1275                                 
  1276 00001040 66F72D[00000000]        imul word [R5]
  1277 00001047 66A3[00000000]          mov [RZ],AX
  1278                                 
  1279 0000104D 66A1[00000000]          mov AX,[RX]
  1280 00001053 662B05[00000000]        sub AX,[RZ]
  1281 0000105A 66A3[00000000]          mov [RX],AX
  1282                                 
  1283 00001060 66A3[02000000]          mov [RX+2],AX
  1284                                 
  1285 00001066 66A1[00000000]          mov AX,[RV]
  1286 0000106C 66A3[00000000]          mov [RX],AX
  1287                                 
  1288 00001072 66A1[00000000]          mov AX,[RW]
  1289 00001078 6683E804                sub AX,4
  1290 0000107C 66A3[00000000]          mov [RW],AX
  1291                                 
  1292 00001082 98                      cwde
  1293 00001083 05[00000000]            add EAX,list
  1294 00001088 89C3                    mov EBX,EAX
  1295 0000108A 66A1[02000000]          mov AX,[RX+2]
  1296 00001090 66C1E002                sal AX,2
  1297 00001094 660B05[04000000]        or AX,[RX+4]
  1298 0000109B C1E010                  sal EAX,16
  1299 0000109E 66A1[00000000]          mov AX,[RX]
  1300 000010A4 8903                    mov [EBX],EAX
  1301                                 
  1302 000010A6 66FF05[02000000]        inc word [RY+2]
  1303                                 
  1304 000010AD 66A1[00000000]          mov AX,[R8]
  1305 000010B3 663B05[00000000]        cmp AX,[RW]
  1306 000010BA 0F8D21320000            jge L97
  1307                                 
  1308 000010C0 66A1[00000000]          mov AX,[RX]
  1309 000010C6 6609C0                  or AX,AX
  1310 000010C9 0F8556FFFFFF            jnz L13
  1311                                 
  1312                                 
  1313                                 L14:
  1314                                 
  1315 000010CF 66A1[00000000]          mov AX,[RW]
  1316 000010D5 98                      cwde
  1317 000010D6 05[00000000]            add EAX,list
  1318 000010DB 89C3                    mov EBX,EAX
  1319 000010DD 668B03                  mov AX,[EBX]
  1320 000010E0 66A3[00000000]          mov [RX],AX
  1321 000010E6 668B4302                mov AX,[EBX+2]
  1322 000010EA 6689C2                  mov DX,AX
  1323 000010ED 6683E203                and DX,3
  1324 000010F1 668915[04000000]        mov [RX+4],DX
  1325 000010F8 66C1F802                sar AX,2
  1326 000010FC 66A3[02000000]          mov [RX+2],AX
  1327                                 
  1328 00001102 66A1[00000000]          mov AX,[RW]
  1329 00001108 6683C004                add AX,4
  1330 0000110C 66A3[00000000]          mov [RW],AX
  1331                                 
  1332 00001112 66A1[02000000]          mov AX,[RX+2]
  1333 00001118 660305[02000000]        add AX,[RE+2]
  1334 0000111F 66A3[02000000]          mov [RX+2],AX
  1335                                 
  1336 00001125 66A1[00000000]          mov AX,[R8]
  1337 0000112B 6683C004                add AX,4
  1338 0000112F 66A3[00000000]          mov [RX],AX
  1339                                 
  1340 00001135 66A1[00000000]          mov AX,[R8]
  1341 0000113B 98                      cwde
  1342 0000113C 05[00000000]            add EAX,list
  1343 00001141 89C3                    mov EBX,EAX
  1344 00001143 66A1[02000000]          mov AX,[RX+2]
  1345 00001149 66C1E002                sal AX,2
  1346 0000114D 660B05[04000000]        or AX,[RX+4]
  1347 00001154 C1E010                  sal EAX,16
  1348 00001157 66A1[00000000]          mov AX,[RX]
  1349 0000115D 8903                    mov [EBX],EAX
  1350                                 
  1351 0000115F 66A1[00000000]          mov AX,[RX]
  1352 00001165 66A3[00000000]          mov [R8],AX
  1353                                 
  1354 0000116B 66A1[00000000]          mov AX,[R9]
  1355 00001171 663B05[00000000]        cmp AX,[RW]
  1356 00001178 0F8D4BFFFFFF            jge L14
  1357                                 
  1358 0000117E 66A1[00000000]          mov AX,[R8]
  1359 00001184 98                      cwde
  1360 00001185 05[00000000]            add EAX,list
  1361 0000118A 89C3                    mov EBX,EAX
  1362 0000118C 31C0                    xor EAX,EAX
  1363 0000118E 8903                    mov [EBX],EAX
  1364                                 
  1365 00001190 66A1[00000000]          mov AX,[R8]
  1366 00001196 6683C004                add AX,4
  1367 0000119A 66A3[00000000]          mov [R8],AX
  1368                                 
  1369 000011A0 663B05[00000000]        cmp AX,[R9]
  1370 000011A7 0F8D34310000            jge L97
  1371                                 
  1372 000011AD 66A1[00000000]          mov AX,[RU]
  1373 000011B3 98                      cwde
  1374 000011B4 05[00000000]            add EAX,list
  1375 000011B9 89C3                    mov EBX,EAX
  1376 000011BB 66A1[02000000]          mov AX,[RY+2]
  1377 000011C1 66C1E002                sal AX,2
  1378 000011C5 660B05[04000000]        or AX,[RY+4]
  1379 000011CC C1E010                  sal EAX,16
  1380 000011CF 66A1[00000000]          mov AX,[RY]
  1381 000011D5 8903                    mov [EBX],EAX
  1382                                 
  1383 000011D7 66A1[00000000]          mov AX,[RY]
  1384 000011DD 98                      cwde
  1385 000011DE 05[00000000]            add EAX,list
  1386 000011E3 89C3                    mov EBX,EAX
  1387 000011E5 668B03                  mov AX,[EBX]
  1388 000011E8 66A3[00000000]          mov [RX],AX
  1389 000011EE 668B4302                mov AX,[EBX+2]
  1390 000011F2 6689C2                  mov DX,AX
  1391 000011F5 6683E203                and DX,3
  1392 000011F9 668915[04000000]        mov [RX+4],DX
  1393 00001200 66C1F802                sar AX,2
  1394 00001204 66A3[02000000]          mov [RX+2],AX
  1395                                 
  1396 0000120A 6631C0                  xor AX,AX
  1397 0000120D 66A3[04000000]          mov [RI+4],AX
  1398                                 
  1399 00001213 E9ECFBFFFF              jmp L11
  1400                                 
  1401                                 
  1402                                 L15:
  1403                                 
  1404 00001218 B8[00000000]            mov EAX,G7
  1405 0000121D 2D[00000000]            sub EAX,progr
  1406 00001222 66A3[00000000]          mov [RP],AX
  1407 00001228 E92D280000              jmp L74
  1408                                 G7:
  1409                                 
  1410 0000122D 66A1[00000000]          mov AX,[RN]
  1411 00001233 6609C0                  or AX,AX
  1412 00001236 0F8DB1010000            jge L18
  1413                                 
  1414 0000123C 66A1[00000000]          mov AX,[R9]
  1415 00001242 6683E804                sub AX,4
  1416 00001246 66A3[00000000]          mov [RO],AX
  1417                                 
  1418 0000124C 66A1[00000000]          mov AX,[R8]
  1419 00001252 663B05[00000000]        cmp AX,[RO]
  1420 00001259 0F8D82300000            jge L97
  1421                                 
  1422 0000125F 66A1[00000000]          mov AX,[R9]
  1423 00001265 98                      cwde
  1424 00001266 05[00000000]            add EAX,list
  1425 0000126B 89C3                    mov EBX,EAX
  1426 0000126D 66A1[02000000]          mov AX,[RO+2]
  1427 00001273 66C1E002                sal AX,2
  1428 00001277 660B05[04000000]        or AX,[RO+4]
  1429 0000127E C1E010                  sal EAX,16
  1430 00001281 66A1[00000000]          mov AX,[RO]
  1431 00001287 8903                    mov [EBX],EAX
  1432                                 
  1433 00001289 66A1[00000000]          mov AX,[RO]
  1434 0000128F 66A3[00000000]          mov [R9],AX
  1435                                 
  1436 00001295 6631C0                  xor AX,AX
  1437 00001298 662B05[00000000]        sub AX,[RN]
  1438 0000129F 66A3[00000000]          mov [RN],AX
  1439                                 
  1440 000012A5 E944010000              jmp L18
  1441                                 
  1442                                 
  1443                                 L16:
  1444                                 
  1445 000012AA 66A1[00000000]          mov AX,[RV]
  1446 000012B0 98                      cwde
  1447 000012B1 05[00000000]            add EAX,list
  1448 000012B6 89C3                    mov EBX,EAX
  1449 000012B8 668B03                  mov AX,[EBX]
  1450 000012BB 66A3[00000000]          mov [RY],AX
  1451 000012C1 668B4302                mov AX,[EBX+2]
  1452 000012C5 6689C2                  mov DX,AX
  1453 000012C8 6683E203                and DX,3
  1454 000012CC 668915[04000000]        mov [RY+4],DX
  1455 000012D3 66C1F802                sar AX,2
  1456 000012D7 66A3[02000000]          mov [RY+2],AX
  1457                                 
  1458 000012DD 66A1[04000000]          mov AX,[RY+4]
  1459 000012E3 6683F801                cmp AX,1
  1460 000012E7 742E                    jz L17
  1461                                 
  1462 000012E9 66A1[00000000]          mov AX,[RV]
  1463 000012EF 6683E804                sub AX,4
  1464 000012F3 66A3[00000000]          mov [RV],AX
  1465                                 
  1466 000012F9 66A1[02000000]          mov AX,[RY+2]
  1467 000012FF 663B05[02000000]        cmp AX,[RI+2]
  1468 00001306 75A0                    jnz L16
  1469                                 
  1470 00001308 66A1[00000000]          mov AX,[RY]
  1471 0000130E 66A3[00000000]          mov [RN],AX
  1472                                 
  1473 00001314 E9D5000000              jmp L18
  1474                                 
  1475                                 
  1476                                 L17:
  1477                                 
  1478 00001319 66A1[00000000]          mov AX,[RV]
  1479 0000131F 660305[00000000]        add AX,[RH]
  1480 00001326 66A3[00000000]          mov [RY],AX
  1481                                 
  1482 0000132C 663B05[00000000]        cmp AX,[RJ]
  1483 00001333 0F842C040000            jz L23
  1484                                 
  1485 00001339 66FF05[00000000]        inc word [RL]
  1486                                 
  1487 00001340 66A1[00000000]          mov AX,[RL]
  1488 00001346 66A3[00000000]          mov [RI],AX
  1489                                 
  1490 0000134C 66A1[00000000]          mov AX,[RV]
  1491 00001352 98                      cwde
  1492 00001353 05[00000000]            add EAX,list
  1493 00001358 89C3                    mov EBX,EAX
  1494 0000135A 66A1[02000000]          mov AX,[RI+2]
  1495 00001360 66C1E002                sal AX,2
  1496 00001364 660B05[04000000]        or AX,[RI+4]
  1497 0000136B C1E010                  sal EAX,16
  1498 0000136E 66A1[00000000]          mov AX,[RI]
  1499 00001374 8903                    mov [EBX],EAX
  1500                                 
  1501 00001376 66A1[00000000]          mov AX,[RV]
  1502 0000137C 6683E804                sub AX,4
  1503 00001380 66A3[00000000]          mov [RV],AX
  1504                                 
  1505 00001386 98                      cwde
  1506 00001387 05[00000000]            add EAX,list
  1507 0000138C 89C3                    mov EBX,EAX
  1508 0000138E 668B03                  mov AX,[EBX]
  1509 00001391 66A3[00000000]          mov [RY],AX
  1510 00001397 668B4302                mov AX,[EBX+2]
  1511 0000139B 6689C2                  mov DX,AX
  1512 0000139E 6683E203                and DX,3
  1513 000013A2 668915[04000000]        mov [RY+4],DX
  1514 000013A9 66C1F802                sar AX,2
  1515 000013AD 66A3[02000000]          mov [RY+2],AX
  1516                                 
  1517 000013B3 66B80100                mov AX,1
  1518 000013B7 66A3[04000000]          mov [RY+4],AX
  1519                                 
  1520 000013BD 66A1[00000000]          mov AX,[RV]
  1521 000013C3 98                      cwde
  1522 000013C4 05[00000000]            add EAX,list
  1523 000013C9 89C3                    mov EBX,EAX
  1524 000013CB 66A1[02000000]          mov AX,[RY+2]
  1525 000013D1 66C1E002                sal AX,2
  1526 000013D5 660B05[04000000]        or AX,[RY+4]
  1527 000013DC C1E010                  sal EAX,16
  1528 000013DF 66A1[00000000]          mov AX,[RY]
  1529 000013E5 8903                    mov [EBX],EAX
  1530                                 
  1531 000013E7 66A1[00000000]          mov AX,[RL]
  1532 000013ED 66A3[00000000]          mov [RN],AX
  1533                                 
  1534                                 
  1535                                 L18:
  1536                                 
  1537 000013F3 66A1[00000000]          mov AX,[RN]
  1538 000013F9 6699                    cwd
  1539 000013FB 66F73D[00000000]        idiv word [R5]
  1540 00001402 66A3[00000000]          mov [RY],AX
  1541                                 
  1542 00001408 66F72D[00000000]        imul word [R5]
  1543 0000140F 66A3[00000000]          mov [RZ],AX
  1544                                 
  1545 00001415 66A1[00000000]          mov AX,[RN]
  1546 0000141B 662B05[00000000]        sub AX,[RZ]
  1547 00001422 66A3[00000000]          mov [RX],AX
  1548                                 
  1549 00001428 6631C0                  xor AX,AX
  1550 0000142B 66A3[04000000]          mov [RX+4],AX
  1551                                 
  1552 00001431 66A1[00000000]          mov AX,[RX]
  1553 00001437 66A3[02000000]          mov [RX+2],AX
  1554                                 
  1555 0000143D 66A1[00000000]          mov AX,[RY]
  1556 00001443 66A3[00000000]          mov [RN],AX
  1557                                 
  1558 00001449 66FF05[02000000]        inc word [RG+2]
  1559                                 
  1560 00001450 66A1[00000000]          mov AX,[R8]
  1561 00001456 6683C004                add AX,4
  1562 0000145A 66A3[00000000]          mov [R8],AX
  1563                                 
  1564 00001460 98                      cwde
  1565 00001461 05[00000000]            add EAX,list
  1566 00001466 89C3                    mov EBX,EAX
  1567 00001468 66A1[02000000]          mov AX,[RX+2]
  1568 0000146E 66C1E002                sal AX,2
  1569 00001472 660B05[04000000]        or AX,[RX+4]
  1570 00001479 C1E010                  sal EAX,16
  1571 0000147C 66A1[00000000]          mov AX,[RX]
  1572 00001482 8903                    mov [EBX],EAX
  1573                                 
  1574 00001484 66A1[00000000]          mov AX,[RN]
  1575 0000148A 6609C0                  or AX,AX
  1576 0000148D 0F855AFFFFFF            jnz L18
  1577                                 
  1578                                 
  1579                                 L19:
  1580                                 
  1581 00001493 66A1[00000000]          mov AX,[R8]
  1582 00001499 98                      cwde
  1583 0000149A 05[00000000]            add EAX,list
  1584 0000149F 89C3                    mov EBX,EAX
  1585 000014A1 668B03                  mov AX,[EBX]
  1586 000014A4 66A3[00000000]          mov [RX],AX
  1587 000014AA 668B4302                mov AX,[EBX+2]
  1588 000014AE 6689C2                  mov DX,AX
  1589 000014B1 6683E203                and DX,3
  1590 000014B5 668915[04000000]        mov [RX+4],DX
  1591 000014BC 66C1F802                sar AX,2
  1592 000014C0 66A3[02000000]          mov [RX+2],AX
  1593                                 
  1594 000014C6 66A1[00000000]          mov AX,[R8]
  1595 000014CC 6683E804                sub AX,4
  1596 000014D0 66A3[00000000]          mov [R8],AX
  1597                                 
  1598 000014D6 66FF0D[02000000]        dec word [RG+2]
  1599                                 
  1600 000014DD 66A1[02000000]          mov AX,[RX+2]
  1601 000014E3 660305[02000000]        add AX,[RE+2]
  1602 000014EA 66A3[02000000]          mov [RX+2],AX
  1603                                 
  1604 000014F0 66A1[00000000]          mov AX,[R9]
  1605 000014F6 6683E804                sub AX,4
  1606 000014FA 66A3[00000000]          mov [RX],AX
  1607                                 
  1608 00001500 66A1[00000000]          mov AX,[R9]
  1609 00001506 98                      cwde
  1610 00001507 05[00000000]            add EAX,list
  1611 0000150C 89C3                    mov EBX,EAX
  1612 0000150E 66A1[02000000]          mov AX,[RX+2]
  1613 00001514 66C1E002                sal AX,2
  1614 00001518 660B05[04000000]        or AX,[RX+4]
  1615 0000151F C1E010                  sal EAX,16
  1616 00001522 66A1[00000000]          mov AX,[RX]
  1617 00001528 8903                    mov [EBX],EAX
  1618                                 
  1619 0000152A 66A1[00000000]          mov AX,[RX]
  1620 00001530 66A3[00000000]          mov [R9],AX
  1621                                 
  1622 00001536 66A1[02000000]          mov AX,[RG+2]
  1623 0000153C 6609C0                  or AX,AX
  1624 0000153F 0F8548FFFFFF            jnz L19
  1625                                 
  1626 00001545 E94AF4FFFF              jmp L07
  1627                                 
  1628                                 
  1629                                 L20:
  1630                                 
  1631 0000154A 66A1[00000000]          mov AX,[RX]
  1632 00001550 98                      cwde
  1633 00001551 05[00000000]            add EAX,list
  1634 00001556 89C3                    mov EBX,EAX
  1635 00001558 668B03                  mov AX,[EBX]
  1636 0000155B 66A3[00000000]          mov [RX],AX
  1637 00001561 668B4302                mov AX,[EBX+2]
  1638 00001565 6689C2                  mov DX,AX
  1639 00001568 6683E203                and DX,3
  1640 0000156C 668915[04000000]        mov [RX+4],DX
  1641 00001573 66C1F802                sar AX,2
  1642 00001577 66A3[02000000]          mov [RX+2],AX
  1643                                 
  1644 0000157D 66FF0D[02000000]        dec word [RY+2]
  1645                                 
  1646 00001584 66A1[02000000]          mov AX,[RY+2]
  1647 0000158A 663B05[02000000]        cmp AX,[RL+2]
  1648 00001591 75B5                    jnz L20
  1649                                 
  1650 00001593 66A1[04000000]          mov AX,[RX+4]
  1651 00001599 6683F801                cmp AX,1
  1652 0000159D 0F84F0F3FFFF            jz L07
  1653                                 
  1654 000015A3 66A1[00000000]          mov AX,[R9]
  1655 000015A9 6683E804                sub AX,4
  1656 000015AD 66A3[00000000]          mov [RX],AX
  1657                                 
  1658 000015B3 66A1[00000000]          mov AX,[R8]
  1659 000015B9 663B05[00000000]        cmp AX,[RX]
  1660 000015C0 0F8D1B2D0000            jge L97
  1661                                 
  1662 000015C6 66A1[00000000]          mov AX,[R9]
  1663 000015CC 98                      cwde
  1664 000015CD 05[00000000]            add EAX,list
  1665 000015D2 89C3                    mov EBX,EAX
  1666 000015D4 66A1[02000000]          mov AX,[RX+2]
  1667 000015DA 66C1E002                sal AX,2
  1668 000015DE 660B05[04000000]        or AX,[RX+4]
  1669 000015E5 C1E010                  sal EAX,16
  1670 000015E8 66A1[00000000]          mov AX,[RX]
  1671 000015EE 8903                    mov [EBX],EAX
  1672                                 
  1673 000015F0 66A1[00000000]          mov AX,[RX]
  1674 000015F6 66A3[00000000]          mov [R9],AX
  1675                                 
  1676 000015FC E993F3FFFF              jmp L07
  1677                                 
  1678                                 
  1679                                 L21:
  1680                                 
  1681 00001601 66A1[00000000]          mov AX,[R9]
  1682 00001607 98                      cwde
  1683 00001608 05[00000000]            add EAX,list
  1684 0000160D 89C3                    mov EBX,EAX
  1685 0000160F 66A1[02000000]          mov AX,[RL+2]
  1686 00001615 66C1E002                sal AX,2
  1687 00001619 660B05[04000000]        or AX,[RL+4]
  1688 00001620 C1E010                  sal EAX,16
  1689 00001623 66A1[00000000]          mov AX,[RL]
  1690 00001629 8903                    mov [EBX],EAX
  1691                                 
  1692 0000162B 66A1[00000000]          mov AX,[RK]
  1693 00001631 6683C004                add AX,4
  1694 00001635 66A3[00000000]          mov [RK],AX
  1695                                 
  1696 0000163B 66A1[00000000]          mov AX,[RC]
  1697 00001641 662B05[00000000]        sub AX,[R9]
  1698 00001648 66A3[00000000]          mov [RY],AX
  1699                                 
  1700 0000164E 66C1F802                sar AX,2
  1701 00001652 66A3[00000000]          mov [RY],AX
  1702                                 
  1703 00001658 6631C0                  xor AX,AX
  1704 0000165B 66A3[04000000]          mov [RY+4],AX
  1705                                 
  1706 00001661 66A1[00000000]          mov AX,[RY]
  1707 00001667 66A3[02000000]          mov [RY+2],AX
  1708                                 
  1709 0000166D 66A1[00000000]          mov AX,[RC]
  1710 00001673 66A3[00000000]          mov [RY],AX
  1711                                 
  1712 00001679 66A1[00000000]          mov AX,[RV]
  1713 0000167F 98                      cwde
  1714 00001680 05[00000000]            add EAX,list
  1715 00001685 89C3                    mov EBX,EAX
  1716 00001687 66A1[02000000]          mov AX,[RY+2]
  1717 0000168D 66C1E002                sal AX,2
  1718 00001691 660B05[04000000]        or AX,[RY+4]
  1719 00001698 C1E010                  sal EAX,16
  1720 0000169B 66A1[00000000]          mov AX,[RY]
  1721 000016A1 8903                    mov [EBX],EAX
  1722                                 
  1723 000016A3 66A1[00000000]          mov AX,[R9]
  1724 000016A9 6683E804                sub AX,4
  1725 000016AD 66A3[00000000]          mov [RC],AX
  1726                                 
  1727 000016B3 E916F1FFFF              jmp L05
  1728                                 
  1729                                 
  1730                                 L22:
  1731                                 
  1732 000016B8 66A1[00000000]          mov AX,[RJ]
  1733 000016BE 66A3[00000000]          mov [RV],AX
  1734                                 
  1735 000016C4 66A1[00000000]          mov AX,[RI]
  1736 000016CA 6609C0                  or AX,AX
  1737 000016CD 0F84D1FBFFFF            jz L16
  1738                                 
  1739 000016D3 66A1[02000000]          mov AX,[RI+2]
  1740 000016D9 6683F809                cmp AX,9
  1741 000016DD 0F84BBF3FFFF            jz L08
  1742                                 
  1743 000016E3 66A1[00000000]          mov AX,[RV]
  1744 000016E9 6683C004                add AX,4
  1745 000016ED 66A3[00000000]          mov [RV],AX
  1746                                 
  1747 000016F3 66A1[00000000]          mov AX,[RK]
  1748 000016F9 6683C004                add AX,4
  1749 000016FD 66A3[00000000]          mov [RK],AX
  1750                                 
  1751 00001703 66A1[02000000]          mov AX,[RI+2]
  1752 00001709 6683F801                cmp AX,1
  1753 0000170D 0F848B000000            jz L32
  1754                                 
  1755 00001713 6683F802                cmp AX,2
  1756 00001717 0F8481000000            jz L32
  1757                                 
  1758 0000171D 6683F803                cmp AX,3
  1759 00001721 0F8433060000            jz L33
  1760                                 
  1761 00001727 6683F804                cmp AX,4
  1762 0000172B 0F84BF0C0000            jz L42
  1763                                 
  1764 00001731 6683F805                cmp AX,5
  1765 00001735 0F847E090000            jz L36
  1766                                 
  1767 0000173B 6683F806                cmp AX,6
  1768 0000173F 0F84260B0000            jz L39
  1769                                 
  1770 00001745 6683F807                cmp AX,7
  1771 00001749 0F84190D0000            jz L43
  1772                                 
  1773 0000174F 6683F808                cmp AX,8
  1774 00001753 0F84F5120000            jz L47
  1775                                 
  1776 00001759 6609C0                  or AX,AX
  1777 0000175C 750B                    jnz L23
  1778                                 
  1779 0000175E 31C0                    xor EAX,EAX
  1780 00001760 890424                  mov [ESP],EAX
  1781 00001763 E8(F6FFFFFF)            call exit
  1782 00001768 31C0                    xor EAX,EAX
  1783                                 
  1784 0000176A C3                      ret
  1785                                 
  1786                                 
  1787                                 L23:
  1788                                 
  1789 0000176B BB[00000000]            mov EBX,MB
  1790 00001770 C7430A434F4E56          mov dword [EBX+10],"CONV"
  1791 00001777 66B80400                mov AX,4
  1792 0000177B 98                      cwde
  1793 0000177C 890424                  mov [ESP],EAX
  1794 0000177F E8(F6FFFFFF)            call iprnt
  1795 00001784 66A3[04000000]          mov [R4+4],AX
  1796                                 
  1797 0000178A B8[00000000]            mov EAX,G8
  1798 0000178F 2D[00000000]            sub EAX,progr
  1799 00001794 66A3[00000000]          mov [RB],AX
  1800 0000179A E9DD290000              jmp L94
  1801                                 G8:
  1802                                 
  1803 0000179F E9F0F1FFFF              jmp L07
  1804                                 
  1805                                 
  1806                                 L32:
  1807                                 
  1808 000017A4 66A1[00000000]          mov AX,[RK]
  1809 000017AA 98                      cwde
  1810 000017AB 05[00000000]            add EAX,list
  1811 000017B0 89C3                    mov EBX,EAX
  1812 000017B2 668B03                  mov AX,[EBX]
  1813 000017B5 66A3[00000000]          mov [RX],AX
  1814 000017BB 668B4302                mov AX,[EBX+2]
  1815 000017BF 6689C2                  mov DX,AX
  1816 000017C2 6683E203                and DX,3
  1817 000017C6 668915[04000000]        mov [RX+4],DX
  1818 000017CD 66C1F802                sar AX,2
  1819 000017D1 66A3[02000000]          mov [RX+2],AX
  1820                                 
  1821 000017D7 66B80300                mov AX,3
  1822 000017DB 66A3[02000000]          mov [RW+2],AX
  1823                                 
  1824 000017E1 66A1[04000000]          mov AX,[RX+4]
  1825 000017E7 6683F801                cmp AX,1
  1826 000017EB 0F8481000000            jz L24
  1827                                 
  1828 000017F1 66A1[00000000]          mov AX,[RK]
  1829 000017F7 6683C004                add AX,4
  1830 000017FB 66A3[00000000]          mov [RK],AX
  1831                                 
  1832 00001801 66A1[02000000]          mov AX,[RX+2]
  1833 00001807 662B05[02000000]        sub AX,[RE+2]
  1834 0000180E 66A3[02000000]          mov [RW+2],AX
  1835                                 
  1836 00001814 66A1[00000000]          mov AX,[RK]
  1837 0000181A 98                      cwde
  1838 0000181B 05[00000000]            add EAX,list
  1839 00001820 89C3                    mov EBX,EAX
  1840 00001822 668B03                  mov AX,[EBX]
  1841 00001825 66A3[00000000]          mov [RX],AX
  1842 0000182B 668B4302                mov AX,[EBX+2]
  1843 0000182F 6689C2                  mov DX,AX
  1844 00001832 6683E203                and DX,3
  1845 00001836 668915[04000000]        mov [RX+4],DX
  1846 0000183D 66C1F802                sar AX,2
  1847 00001841 66A3[02000000]          mov [RX+2],AX
  1848                                 
  1849 00001847 66A1[04000000]          mov AX,[RX+4]
  1850 0000184D 6683F801                cmp AX,1
  1851 00001851 7423                    jz L24
  1852                                 
  1853 00001853 66A1[02000000]          mov AX,[RW+2]
  1854 00001859 98                      cwde
  1855 0000185A 890424                  mov [ESP],EAX
  1856 0000185D E8(F6FFFFFF)            call icntl
  1857 00001862 66A3[04000000]          mov [RW+4],AX
  1858                                 
  1859 00001868 66A1[00000000]          mov AX,[RK]
  1860 0000186E 6683C004                add AX,4
  1861 00001872 66A3[00000000]          mov [RK],AX
  1862                                 
  1863                                 
  1864                                 L24:
  1865                                 
  1866 00001878 66A1[02000000]          mov AX,[RI+2]
  1867 0000187E 6683F802                cmp AX,2
  1868 00001882 0F84E7020000            jz L31
  1869                                 
  1870 00001888 66A1[00000000]          mov AX,[R9]
  1871 0000188E 98                      cwde
  1872 0000188F 05[00000000]            add EAX,list
  1873 00001894 89C3                    mov EBX,EAX
  1874 00001896 66A1[02000000]          mov AX,[RL+2]
  1875 0000189C 66C1E002                sal AX,2
  1876 000018A0 660B05[04000000]        or AX,[RL+4]
  1877 000018A7 C1E010                  sal EAX,16
  1878 000018AA 66A1[00000000]          mov AX,[RL]
  1879 000018B0 8903                    mov [EBX],EAX
  1880                                 
  1881 000018B2 66A1[00000000]          mov AX,[RC]
  1882 000018B8 66A3[00000000]          mov [RX],AX
  1883                                 
  1884 000018BE 66A1[00000000]          mov AX,[RC]
  1885 000018C4 663B05[00000000]        cmp AX,[R9]
  1886 000018CB 0F851D190000            jnz L57
  1887                                 
  1888 000018D1 66A1[00000000]          mov AX,[RK]
  1889 000018D7 6683C004                add AX,4
  1890 000018DB 66A3[00000000]          mov [RK],AX
  1891                                 
  1892 000018E1 98                      cwde
  1893 000018E2 05[00000000]            add EAX,list
  1894 000018E7 89C3                    mov EBX,EAX
  1895 000018E9 668B03                  mov AX,[EBX]
  1896 000018EC 66A3[00000000]          mov [RI],AX
  1897 000018F2 668B4302                mov AX,[EBX+2]
  1898 000018F6 6689C2                  mov DX,AX
  1899 000018F9 6683E203                and DX,3
  1900 000018FD 668915[04000000]        mov [RI+4],DX
  1901 00001904 66C1F802                sar AX,2
  1902 00001908 66A3[02000000]          mov [RI+2],AX
  1903                                 
  1904 0000190E 66A1[04000000]          mov AX,[RI+4]
  1905 00001914 6683F801                cmp AX,1
  1906 00001918 7513                    jnz L25
  1907                                 
  1908 0000191A 66A1[00000000]          mov AX,[RK]
  1909 00001920 6683E804                sub AX,4
  1910 00001924 66A3[00000000]          mov [RK],AX
  1911                                 
  1912 0000192A E937FEFFFF              jmp L23
  1913                                 
  1914                                 
  1915                                 L25:
  1916                                 
  1917 0000192F 66A1[02000000]          mov AX,[RI+2]
  1918 00001935 66A3[00000000]          mov [RZ],AX
  1919                                 
  1920 0000193B 662B05[00000000]        sub AX,[RE]
  1921 00001942 66A3[00000000]          mov [RZ],AX
  1922                                 
  1923 00001948 6683F80A                cmp AX,10
  1924 0000194C 0F8DB6010000            jge L28
  1925                                 
  1926 00001952 6631C0                  xor AX,AX
  1927 00001955 663B05[00000000]        cmp AX,[RZ]
  1928 0000195C 0F8DA6010000            jge L28
  1929                                 
  1930 00001962 66A1[02000000]          mov AX,[RI+2]
  1931 00001968 66A3[02000000]          mov [RX+2],AX
  1932                                 
  1933 0000196E 66A1[00000000]          mov AX,[RZ]
  1934 00001974 66C1E002                sal AX,2
  1935 00001978 66A3[00000000]          mov [RZ],AX
  1936                                 
  1937 0000197E 66A1[00000000]          mov AX,[RJ]
  1938 00001984 660305[00000000]        add AX,[RZ]
  1939 0000198B 66A3[00000000]          mov [RY],AX
  1940                                 
  1941 00001991 98                      cwde
  1942 00001992 05[00000000]            add EAX,list
  1943 00001997 89C3                    mov EBX,EAX
  1944 00001999 668B03                  mov AX,[EBX]
  1945 0000199C 66A3[00000000]          mov [RY],AX
  1946 000019A2 668B4302                mov AX,[EBX+2]
  1947 000019A6 6689C2                  mov DX,AX
  1948 000019A9 6683E203                and DX,3
  1949 000019AD 668915[04000000]        mov [RY+4],DX
  1950 000019B4 66C1F802                sar AX,2
  1951 000019B8 66A3[02000000]          mov [RY+2],AX
  1952                                 
  1953 000019BE 66A1[04000000]          mov AX,[RY+4]
  1954 000019C4 6683F803                cmp AX,3
  1955 000019C8 0F84DA000000            jz L27
  1956                                 
  1957 000019CE 66A1[00000000]          mov AX,[RY]
  1958 000019D4 98                      cwde
  1959 000019D5 05[00000000]            add EAX,list
  1960 000019DA 89C3                    mov EBX,EAX
  1961 000019DC 668B03                  mov AX,[EBX]
  1962 000019DF 66A3[00000000]          mov [RZ],AX
  1963 000019E5 668B4302                mov AX,[EBX+2]
  1964 000019E9 6689C2                  mov DX,AX
  1965 000019EC 6683E203                and DX,3
  1966 000019F0 668915[04000000]        mov [RZ+4],DX
  1967 000019F7 66C1F802                sar AX,2
  1968 000019FB 66A3[02000000]          mov [RZ+2],AX
  1969                                 
  1970                                 
  1971                                 L26:
  1972                                 
  1973 00001A01 66A1[02000000]          mov AX,[RY+2]
  1974 00001A07 6609C0                  or AX,AX
  1975 00001A0A 0F8498000000            jz L27
  1976                                 
  1977 00001A10 66A1[02000000]          mov AX,[RZ+2]
  1978 00001A16 98                      cwde
  1979 00001A17 890424                  mov [ESP],EAX
  1980 00001A1A E8(F6FFFFFF)            call iwrch
  1981 00001A1F 66A3[04000000]          mov [RZ+4],AX
  1982                                 
  1983 00001A25 66A1[00000000]          mov AX,[RZ]
  1984 00001A2B 98                      cwde
  1985 00001A2C 05[00000000]            add EAX,list
  1986 00001A31 89C3                    mov EBX,EAX
  1987 00001A33 668B03                  mov AX,[EBX]
  1988 00001A36 66A3[00000000]          mov [RZ],AX
  1989 00001A3C 668B4302                mov AX,[EBX+2]
  1990 00001A40 6689C2                  mov DX,AX
  1991 00001A43 6683E203                and DX,3
  1992 00001A47 668915[04000000]        mov [RZ+4],DX
  1993 00001A4E 66C1F802                sar AX,2
  1994 00001A52 66A3[02000000]          mov [RZ+2],AX
  1995                                 
  1996 00001A58 66FF0D[02000000]        dec word [RY+2]
  1997                                 
  1998 00001A5F 66A1[00000000]          mov AX,[RK]
  1999 00001A65 6683C004                add AX,4
  2000 00001A69 66A3[00000000]          mov [RK],AX
  2001                                 
  2002 00001A6F 98                      cwde
  2003 00001A70 05[00000000]            add EAX,list
  2004 00001A75 89C3                    mov EBX,EAX
  2005 00001A77 668B03                  mov AX,[EBX]
  2006 00001A7A 66A3[00000000]          mov [RI],AX
  2007 00001A80 668B4302                mov AX,[EBX+2]
  2008 00001A84 6689C2                  mov DX,AX
  2009 00001A87 6683E203                and DX,3
  2010 00001A8B 668915[04000000]        mov [RI+4],DX
  2011 00001A92 66C1F802                sar AX,2
  2012 00001A96 66A3[02000000]          mov [RI+2],AX
  2013                                 
  2014 00001A9C 663B05[02000000]        cmp AX,[RX+2]
  2015 00001AA3 0F8452FFFFFF            jz L26
  2016                                 
  2017 00001AA9 E97CFEFFFF              jmp L25
  2018                                 
  2019                                 
  2020                                 L27:
  2021                                 
  2022 00001AAE 66A1[02000000]          mov AX,[RF+2]
  2023 00001AB4 98                      cwde
  2024 00001AB5 890424                  mov [ESP],EAX
  2025 00001AB8 E8(F6FFFFFF)            call iwrch
  2026 00001ABD 66A3[04000000]          mov [RF+4],AX
  2027                                 
  2028 00001AC3 66A1[00000000]          mov AX,[RK]
  2029 00001AC9 6683C004                add AX,4
  2030 00001ACD 66A3[00000000]          mov [RK],AX
  2031                                 
  2032 00001AD3 98                      cwde
  2033 00001AD4 05[00000000]            add EAX,list
  2034 00001AD9 89C3                    mov EBX,EAX
  2035 00001ADB 668B03                  mov AX,[EBX]
  2036 00001ADE 66A3[00000000]          mov [RI],AX
  2037 00001AE4 668B4302                mov AX,[EBX+2]
  2038 00001AE8 6689C2                  mov DX,AX
  2039 00001AEB 6683E203                and DX,3
  2040 00001AEF 668915[04000000]        mov [RI+4],DX
  2041 00001AF6 66C1F802                sar AX,2
  2042 00001AFA 66A3[02000000]          mov [RI+2],AX
  2043                                 
  2044 00001B00 663B05[02000000]        cmp AX,[RX+2]
  2045 00001B07 74A3                    jz L27
  2046                                 
  2047 00001B09 E91CFEFFFF              jmp L25
  2048                                 
  2049                                 
  2050                                 L28:
  2051                                 
  2052 00001B0E 66A1[04000000]          mov AX,[RI+4]
  2053 00001B14 6683F801                cmp AX,1
  2054 00001B18 0F84D0160000            jz L57
  2055                                 
  2056 00001B1E 66A1[02000000]          mov AX,[RI+2]
  2057 00001B24 98                      cwde
  2058 00001B25 890424                  mov [ESP],EAX
  2059 00001B28 E8(F6FFFFFF)            call iwrch
  2060 00001B2D 66A3[04000000]          mov [RI+4],AX
  2061                                 
  2062 00001B33 66A1[00000000]          mov AX,[RK]
  2063 00001B39 6683C004                add AX,4
  2064 00001B3D 66A3[00000000]          mov [RK],AX
  2065                                 
  2066 00001B43 98                      cwde
  2067 00001B44 05[00000000]            add EAX,list
  2068 00001B49 89C3                    mov EBX,EAX
  2069 00001B4B 668B03                  mov AX,[EBX]
  2070 00001B4E 66A3[00000000]          mov [RI],AX
  2071 00001B54 668B4302                mov AX,[EBX+2]
  2072 00001B58 6689C2                  mov DX,AX
  2073 00001B5B 6683E203                and DX,3
  2074 00001B5F 668915[04000000]        mov [RI+4],DX
  2075 00001B66 66C1F802                sar AX,2
  2076 00001B6A 66A3[02000000]          mov [RI+2],AX
  2077                                 
  2078 00001B70 E9B5FDFFFF              jmp L25
  2079                                 
  2080                                 
  2081                                 L31:
  2082                                 
  2083 00001B75 66A1[00000000]          mov AX,[RA]
  2084 00001B7B 98                      cwde
  2085 00001B7C 05[00000000]            add EAX,list
  2086 00001B81 89C3                    mov EBX,EAX
  2087 00001B83 668B03                  mov AX,[EBX]
  2088 00001B86 66A3[00000000]          mov [RI],AX
  2089 00001B8C 668B4302                mov AX,[EBX+2]
  2090 00001B90 6689C2                  mov DX,AX
  2091 00001B93 6683E203                and DX,3
  2092 00001B97 668915[04000000]        mov [RI+4],DX
  2093 00001B9E 66C1F802                sar AX,2
  2094 00001BA2 66A3[02000000]          mov [RI+2],AX
  2095                                 
  2096 00001BA8 66A1[00000000]          mov AX,[RC]
  2097 00001BAE 663B05[00000000]        cmp AX,[R9]
  2098 00001BB5 0F848B000000            jz L29
  2099                                 
  2100 00001BBB 98                      cwde
  2101 00001BBC 05[00000000]            add EAX,list
  2102 00001BC1 89C3                    mov EBX,EAX
  2103 00001BC3 668B03                  mov AX,[EBX]
  2104 00001BC6 66A3[00000000]          mov [RX],AX
  2105 00001BCC 668B4302                mov AX,[EBX+2]
  2106 00001BD0 6689C2                  mov DX,AX
  2107 00001BD3 6683E203                and DX,3
  2108 00001BD7 668915[04000000]        mov [RX+4],DX
  2109 00001BDE 66C1F802                sar AX,2
  2110 00001BE2 66A3[02000000]          mov [RX+2],AX
  2111                                 
  2112 00001BE8 662B05[02000000]        sub AX,[RE+2]
  2113 00001BEF 66A3[02000000]          mov [RI+2],AX
  2114                                 
  2115 00001BF5 66A1[00000000]          mov AX,[RA]
  2116 00001BFB 98                      cwde
  2117 00001BFC 05[00000000]            add EAX,list
  2118 00001C01 89C3                    mov EBX,EAX
  2119 00001C03 66A1[02000000]          mov AX,[RI+2]
  2120 00001C09 66C1E002                sal AX,2
  2121 00001C0D 660B05[04000000]        or AX,[RI+4]
  2122 00001C14 C1E010                  sal EAX,16
  2123 00001C17 66A1[00000000]          mov AX,[RI]
  2124 00001C1D 8903                    mov [EBX],EAX
  2125                                 
  2126 00001C1F 66A1[00000000]          mov AX,[RX]
  2127 00001C25 663B05[00000000]        cmp AX,[R9]
  2128 00001C2C 741C                    jz L29
  2129                                 
  2130 00001C2E 66A1[02000000]          mov AX,[RI+2]
  2131 00001C34 98                      cwde
  2132 00001C35 890424                  mov [ESP],EAX
  2133 00001C38 E8(F6FFFFFF)            call icntl
  2134 00001C3D 66A3[04000000]          mov [RI+4],AX
  2135                                 
  2136 00001C43 6609C0                  or AX,AX
  2137 00001C46 0F85D6260000            jnz L98
  2138                                 
  2139                                 
  2140                                 L29:
  2141                                 
  2142 00001C4C 66A1[00000000]          mov AX,[RV]
  2143 00001C52 98                      cwde
  2144 00001C53 05[00000000]            add EAX,list
  2145 00001C58 89C3                    mov EBX,EAX
  2146 00001C5A 668B03                  mov AX,[EBX]
  2147 00001C5D 66A3[00000000]          mov [RX],AX
  2148 00001C63 668B4302                mov AX,[EBX+2]
  2149 00001C67 6689C2                  mov DX,AX
  2150 00001C6A 6683E203                and DX,3
  2151 00001C6E 668915[04000000]        mov [RX+4],DX
  2152 00001C75 66C1F802                sar AX,2
  2153 00001C79 66A3[02000000]          mov [RX+2],AX
  2154                                 
  2155 00001C7F 6609C0                  or AX,AX
  2156 00001C82 0F8445EBFFFF            jz L05
  2157                                 
  2158 00001C88 66A1[04000000]          mov AX,[RX+4]
  2159 00001C8E 6683F803                cmp AX,3
  2160 00001C92 0F8435EBFFFF            jz L05
  2161                                 
  2162 00001C98 66A1[00000000]          mov AX,[RX]
  2163 00001C9E 66A3[00000000]          mov [RY],AX
  2164                                 
  2165 00001CA4 66A1[02000000]          mov AX,[RI+2]
  2166 00001CAA 98                      cwde
  2167 00001CAB 890424                  mov [ESP],EAX
  2168 00001CAE E8(F6FFFFFF)            call iread
  2169 00001CB3 66A3[04000000]          mov [RI+4],AX
  2170                                 
  2171 00001CB9 6609C0                  or AX,AX
  2172 00001CBC 0F8560260000            jnz L98
  2173                                 
  2174                                 
  2175                                 L30:
  2176                                 
  2177 00001CC2 66A1[02000000]          mov AX,[RX+2]
  2178 00001CC8 6609C0                  or AX,AX
  2179 00001CCB 0F84FCEAFFFF            jz L05
  2180                                 
  2181 00001CD1 66FF0D[02000000]        dec word [RX+2]
  2182                                 
  2183 00001CD8 66A1[00000000]          mov AX,[RY]
  2184 00001CDE 98                      cwde
  2185 00001CDF 05[00000000]            add EAX,list
  2186 00001CE4 89C3                    mov EBX,EAX
  2187 00001CE6 668B03                  mov AX,[EBX]
  2188 00001CE9 66A3[00000000]          mov [RY],AX
  2189 00001CEF 668B4302                mov AX,[EBX+2]
  2190 00001CF3 6689C2                  mov DX,AX
  2191 00001CF6 6683E203                and DX,3
  2192 00001CFA 668915[04000000]        mov [RY+4],DX
  2193 00001D01 66C1F802                sar AX,2
  2194 00001D05 66A3[02000000]          mov [RY+2],AX
  2195                                 
  2196 00001D0B 8B1D[00000000]          mov EBX,[LBR]
  2197 00001D11 8A83[00000000]          mov AL,[LINE+EBX]
  2198 00001D17 6698                    cbw
  2199 00001D19 43                      inc EBX
  2200 00001D1A 891D[00000000]          mov [LBR],EBX
  2201 00001D20 66A3[02000000]          mov [RZ+2],AX
  2202                                 
  2203 00001D26 66A1[02000000]          mov AX,[RY+2]
  2204 00001D2C 663B05[02000000]        cmp AX,[RZ+2]
  2205 00001D33 748B                    jz L30
  2206                                 
  2207 00001D35 66A1[02000000]          mov AX,[RW+2]
  2208 00001D3B 98                      cwde
  2209 00001D3C 890424                  mov [ESP],EAX
  2210 00001D3F E8(F6FFFFFF)            call iwrite
  2211 00001D44 66A3[04000000]          mov [RW+4],AX
  2212                                 
  2213 00001D4A 6609C0                  or AX,AX
  2214 00001D4D 0F84F3FEFFFF            jz L29
  2215                                 
  2216 00001D53 31C0                    xor EAX,EAX
  2217 00001D55 890424                  mov [ESP],EAX
  2218 00001D58 E8(F6FFFFFF)            call exit
  2219 00001D5D 31C0                    xor EAX,EAX
  2220                                 
  2221 00001D5F C3                      ret
  2222                                 
  2223                                 
  2224                                 L33:
  2225                                 
  2226 00001D60 66A1[00000000]          mov AX,[RV]
  2227 00001D66 98                      cwde
  2228 00001D67 05[00000000]            add EAX,list
  2229 00001D6C 89C3                    mov EBX,EAX
  2230 00001D6E 668B03                  mov AX,[EBX]
  2231 00001D71 66A3[00000000]          mov [RY],AX
  2232 00001D77 668B4302                mov AX,[EBX+2]
  2233 00001D7B 6689C2                  mov DX,AX
  2234 00001D7E 6683E203                and DX,3
  2235 00001D82 668915[04000000]        mov [RY+4],DX
  2236 00001D89 66C1F802                sar AX,2
  2237 00001D8D 66A3[02000000]          mov [RY+2],AX
  2238                                 
  2239 00001D93 66A1[04000000]          mov AX,[RY+4]
  2240 00001D99 6683F803                cmp AX,3
  2241 00001D9D 0F84C2F9FFFF            jz L23
  2242                                 
  2243 00001DA3 66A1[02000000]          mov AX,[RY+2]
  2244 00001DA9 6609C0                  or AX,AX
  2245 00001DAC 0F841BEAFFFF            jz L05
  2246                                 
  2247 00001DB2 66A1[00000000]          mov AX,[RY]
  2248 00001DB8 98                      cwde
  2249 00001DB9 05[00000000]            add EAX,list
  2250 00001DBE 89C3                    mov EBX,EAX
  2251 00001DC0 668B03                  mov AX,[EBX]
  2252 00001DC3 66A3[00000000]          mov [RX],AX
  2253 00001DC9 668B4302                mov AX,[EBX+2]
  2254 00001DCD 6689C2                  mov DX,AX
  2255 00001DD0 6683E203                and DX,3
  2256 00001DD4 668915[04000000]        mov [RX+4],DX
  2257 00001DDB 66C1F802                sar AX,2
  2258 00001DDF 66A3[02000000]          mov [RX+2],AX
  2259                                 
  2260 00001DE5 66B80200                mov AX,2
  2261 00001DE9 66A3[04000000]          mov [RB+4],AX
  2262                                 
  2263 00001DEF 66A1[00000000]          mov AX,[RF]
  2264 00001DF5 98                      cwde
  2265 00001DF6 05[00000000]            add EAX,list
  2266 00001DFB 89C3                    mov EBX,EAX
  2267 00001DFD 668B03                  mov AX,[EBX]
  2268 00001E00 66A3[00000000]          mov [RW],AX
  2269 00001E06 668B4302                mov AX,[EBX+2]
  2270 00001E0A 6689C2                  mov DX,AX
  2271 00001E0D 6683E203                and DX,3
  2272 00001E11 668915[04000000]        mov [RW+4],DX
  2273 00001E18 66C1F802                sar AX,2
  2274 00001E1C 66A3[02000000]          mov [RW+2],AX
  2275                                 
  2276 00001E22 66A1[00000000]          mov AX,[RF]
  2277 00001E28 66A3[00000000]          mov [RZ],AX
  2278                                 
  2279 00001E2E B8[00000000]            mov EAX,G9
  2280 00001E33 2D[00000000]            sub EAX,progr
  2281 00001E38 66A3[00000000]          mov [RB],AX
  2282 00001E3E E939140000              jmp L58
  2283                                 G9:
  2284                                 
  2285 00001E43 6631C0                  xor AX,AX
  2286 00001E46 66A3[04000000]          mov [RB+4],AX
  2287                                 
  2288 00001E4C 66A1[04000000]          mov AX,[RY+4]
  2289 00001E52 66A3[04000000]          mov [RW+4],AX
  2290                                 
  2291 00001E58 66A1[00000000]          mov AX,[RU]
  2292 00001E5E 66A3[00000000]          mov [RW],AX
  2293                                 
  2294 00001E64 66A1[00000000]          mov AX,[RY]
  2295 00001E6A 66A3[00000000]          mov [RZ],AX
  2296                                 
  2297 00001E70 66A1[00000000]          mov AX,[RV]
  2298 00001E76 6683C004                add AX,4
  2299 00001E7A 66A3[00000000]          mov [RV],AX
  2300                                 
  2301 00001E80 98                      cwde
  2302 00001E81 05[00000000]            add EAX,list
  2303 00001E86 89C3                    mov EBX,EAX
  2304 00001E88 668B03                  mov AX,[EBX]
  2305 00001E8B 66A3[00000000]          mov [RY],AX
  2306 00001E91 668B4302                mov AX,[EBX+2]
  2307 00001E95 6689C2                  mov DX,AX
  2308 00001E98 6683E203                and DX,3
  2309 00001E9C 668915[04000000]        mov [RY+4],DX
  2310 00001EA3 66C1F802                sar AX,2
  2311 00001EA7 66A3[02000000]          mov [RY+2],AX
  2312                                 
  2313 00001EAD 66A1[04000000]          mov AX,[RY+4]
  2314 00001EB3 6683F803                cmp AX,3
  2315 00001EB7 0F84A8F8FFFF            jz L23
  2316                                 
  2317 00001EBD 66A1[00000000]          mov AX,[RY]
  2318 00001EC3 66A3[00000000]          mov [RX],AX
  2319                                 
  2320 00001EC9 66B80100                mov AX,1
  2321 00001ECD 66A3[04000000]          mov [RZ+4],AX
  2322                                 
  2323 00001ED3 66A1[02000000]          mov AX,[RY+2]
  2324 00001ED9 66A3[02000000]          mov [RZ+2],AX
  2325                                 
  2326 00001EDF 66A1[04000000]          mov AX,[RW+4]
  2327 00001EE5 6683F801                cmp AX,1
  2328 00001EE9 0F85FB000000            jnz L35
  2329                                 
  2330 00001EEF 66A1[00000000]          mov AX,[RW]
  2331 00001EF5 98                      cwde
  2332 00001EF6 05[00000000]            add EAX,list
  2333 00001EFB 89C3                    mov EBX,EAX
  2334 00001EFD 66A1[02000000]          mov AX,[RZ+2]
  2335 00001F03 66C1E002                sal AX,2
  2336 00001F07 660B05[04000000]        or AX,[RZ+4]
  2337 00001F0E C1E010                  sal EAX,16
  2338 00001F11 66A1[00000000]          mov AX,[RZ]
  2339 00001F17 8903                    mov [EBX],EAX
  2340                                 
  2341 00001F19 66A1[02000000]          mov AX,[RY+2]
  2342 00001F1F 6609C0                  or AX,AX
  2343 00001F22 0F84A5E8FFFF            jz L05
  2344                                 
  2345                                 
  2346                                 L34:
  2347                                 
  2348 00001F28 66A1[00000000]          mov AX,[RX]
  2349 00001F2E 98                      cwde
  2350 00001F2F 05[00000000]            add EAX,list
  2351 00001F34 89C3                    mov EBX,EAX
  2352 00001F36 668B03                  mov AX,[EBX]
  2353 00001F39 66A3[00000000]          mov [RX],AX
  2354 00001F3F 668B4302                mov AX,[EBX+2]
  2355 00001F43 6689C2                  mov DX,AX
  2356 00001F46 6683E203                and DX,3
  2357 00001F4A 668915[04000000]        mov [RX+4],DX
  2358 00001F51 66C1F802                sar AX,2
  2359 00001F55 66A3[02000000]          mov [RX+2],AX
  2360                                 
  2361 00001F5B 66A1[00000000]          mov AX,[RZ]
  2362 00001F61 66A3[00000000]          mov [RW],AX
  2363                                 
  2364 00001F67 98                      cwde
  2365 00001F68 05[00000000]            add EAX,list
  2366 00001F6D 89C3                    mov EBX,EAX
  2367 00001F6F 668B03                  mov AX,[EBX]
  2368 00001F72 66A3[00000000]          mov [RZ],AX
  2369 00001F78 668B4302                mov AX,[EBX+2]
  2370 00001F7C 6689C2                  mov DX,AX
  2371 00001F7F 6683E203                and DX,3
  2372 00001F83 668915[04000000]        mov [RZ+4],DX
  2373 00001F8A 66C1F802                sar AX,2
  2374 00001F8E 66A3[02000000]          mov [RZ+2],AX
  2375                                 
  2376 00001F94 66A1[02000000]          mov AX,[RX+2]
  2377 00001F9A 66A3[02000000]          mov [RZ+2],AX
  2378                                 
  2379 00001FA0 66A1[00000000]          mov AX,[RW]
  2380 00001FA6 98                      cwde
  2381 00001FA7 05[00000000]            add EAX,list
  2382 00001FAC 89C3                    mov EBX,EAX
  2383 00001FAE 66A1[02000000]          mov AX,[RZ+2]
  2384 00001FB4 66C1E002                sal AX,2
  2385 00001FB8 660B05[04000000]        or AX,[RZ+4]
  2386 00001FBF C1E010                  sal EAX,16
  2387 00001FC2 66A1[00000000]          mov AX,[RZ]
  2388 00001FC8 8903                    mov [EBX],EAX
  2389                                 
  2390 00001FCA 66FF0D[02000000]        dec word [RY+2]
  2391                                 
  2392 00001FD1 66A1[00000000]          mov AX,[RZ]
  2393 00001FD7 6609C0                  or AX,AX
  2394 00001FDA 7412                    jz L35
  2395                                 
  2396 00001FDC 66A1[02000000]          mov AX,[RY+2]
  2397 00001FE2 6609C0                  or AX,AX
  2398 00001FE5 0F8537FFFFFF            jnz L34
  2399                                 
  2400 00001FEB E9DEE7FFFF              jmp L05
  2401                                 
  2402                                 
  2403                                 L35:
  2404                                 
  2405 00001FF0 66A1[00000000]          mov AX,[R8]
  2406 00001FF6 66A3[00000000]          mov [RZ],AX
  2407                                 
  2408 00001FFC 66A1[00000000]          mov AX,[RW]
  2409 00002002 98                      cwde
  2410 00002003 05[00000000]            add EAX,list
  2411 00002008 89C3                    mov EBX,EAX
  2412 0000200A 66A1[02000000]          mov AX,[RZ+2]
  2413 00002010 66C1E002                sal AX,2
  2414 00002014 660B05[04000000]        or AX,[RZ+4]
  2415 0000201B C1E010                  sal EAX,16
  2416 0000201E 66A1[00000000]          mov AX,[RZ]
  2417 00002024 8903                    mov [EBX],EAX
  2418                                 
  2419 00002026 66A1[00000000]          mov AX,[R8]
  2420 0000202C 6683C004                add AX,4
  2421 00002030 66A3[00000000]          mov [R8],AX
  2422                                 
  2423 00002036 663B05[00000000]        cmp AX,[R9]
  2424 0000203D 0F8D9E220000            jge L97
  2425                                 
  2426 00002043 66A1[00000000]          mov AX,[RZ]
  2427 00002049 66A3[00000000]          mov [RW],AX
  2428                                 
  2429 0000204F 66A1[00000000]          mov AX,[RX]
  2430 00002055 98                      cwde
  2431 00002056 05[00000000]            add EAX,list
  2432 0000205B 89C3                    mov EBX,EAX
  2433 0000205D 668B03                  mov AX,[EBX]
  2434 00002060 66A3[00000000]          mov [RZ],AX
  2435 00002066 668B4302                mov AX,[EBX+2]
  2436 0000206A 6689C2                  mov DX,AX
  2437 0000206D 6683E203                and DX,3
  2438 00002071 668915[04000000]        mov [RZ+4],DX
  2439 00002078 66C1F802                sar AX,2
  2440 0000207C 66A3[02000000]          mov [RZ+2],AX
  2441                                 
  2442 00002082 66A1[00000000]          mov AX,[RZ]
  2443 00002088 66A3[00000000]          mov [RX],AX
  2444                                 
  2445 0000208E 66FF0D[02000000]        dec word [RY+2]
  2446                                 
  2447 00002095 66A1[02000000]          mov AX,[RY+2]
  2448 0000209B 663B05[02000000]        cmp AX,[RL+2]
  2449 000020A2 0F8542FFFFFF            jnz L35
  2450                                 
  2451 000020A8 66A1[00000000]          mov AX,[RW]
  2452 000020AE 98                      cwde
  2453 000020AF 05[00000000]            add EAX,list
  2454 000020B4 89C3                    mov EBX,EAX
  2455 000020B6 31C0                    xor EAX,EAX
  2456 000020B8 8903                    mov [EBX],EAX
  2457                                 
  2458 000020BA E90FE7FFFF              jmp L05
  2459                                 
  2460                                 
  2461                                 L36:
  2462                                 
  2463 000020BF 66A1[00000000]          mov AX,[RK]
  2464 000020C5 98                      cwde
  2465 000020C6 05[00000000]            add EAX,list
  2466 000020CB 89C3                    mov EBX,EAX
  2467 000020CD 668B03                  mov AX,[EBX]
  2468 000020D0 66A3[00000000]          mov [RI],AX
  2469 000020D6 668B4302                mov AX,[EBX+2]
  2470 000020DA 6689C2                  mov DX,AX
  2471 000020DD 6683E203                and DX,3
  2472 000020E1 668915[04000000]        mov [RI+4],DX
  2473 000020E8 66C1F802                sar AX,2
  2474 000020EC 66A3[02000000]          mov [RI+2],AX
  2475                                 
  2476 000020F2 66A1[00000000]          mov AX,[RK]
  2477 000020F8 6683C004                add AX,4
  2478 000020FC 66A3[00000000]          mov [RK],AX
  2479                                 
  2480 00002102 66A1[00000000]          mov AX,[RV]
  2481 00002108 98                      cwde
  2482 00002109 05[00000000]            add EAX,list
  2483 0000210E 89C3                    mov EBX,EAX
  2484 00002110 668B03                  mov AX,[EBX]
  2485 00002113 66A3[00000000]          mov [RY],AX
  2486 00002119 668B4302                mov AX,[EBX+2]
  2487 0000211D 6689C2                  mov DX,AX
  2488 00002120 6683E203                and DX,3
  2489 00002124 668915[04000000]        mov [RY+4],DX
  2490 0000212B 66C1F802                sar AX,2
  2491 0000212F 66A3[02000000]          mov [RY+2],AX
  2492                                 
  2493 00002135 66A1[00000000]          mov AX,[RV]
  2494 0000213B 6683C004                add AX,4
  2495 0000213F 66A3[00000000]          mov [RV],AX
  2496                                 
  2497 00002145 98                      cwde
  2498 00002146 05[00000000]            add EAX,list
  2499 0000214B 89C3                    mov EBX,EAX
  2500 0000214D 668B03                  mov AX,[EBX]
  2501 00002150 66A3[00000000]          mov [RZ],AX
  2502 00002156 668B4302                mov AX,[EBX+2]
  2503 0000215A 6689C2                  mov DX,AX
  2504 0000215D 6683E203                and DX,3
  2505 00002161 668915[04000000]        mov [RZ+4],DX
  2506 00002168 66C1F802                sar AX,2
  2507 0000216C 66A3[02000000]          mov [RZ+2],AX
  2508                                 
  2509 00002172 66A1[04000000]          mov AX,[RY+4]
  2510 00002178 6683F803                cmp AX,3
  2511 0000217C 0F84E3F5FFFF            jz L23
  2512                                 
  2513 00002182 66A1[04000000]          mov AX,[RZ+4]
  2514 00002188 6683F803                cmp AX,3
  2515 0000218C 0F84D3F5FFFF            jz L23
  2516                                 
  2517 00002192 66A1[00000000]          mov AX,[RV]
  2518 00002198 6683C004                add AX,4
  2519 0000219C 66A3[00000000]          mov [RV],AX
  2520                                 
  2521 000021A2 66A1[02000000]          mov AX,[RY+2]
  2522 000021A8 663B05[02000000]        cmp AX,[RZ+2]
  2523 000021AF 0F8528020000            jnz L41
  2524                                 
  2525 000021B5 6609C0                  or AX,AX
  2526 000021B8 0F8495000000            jz L38
  2527                                 
  2528 000021BE 66A1[00000000]          mov AX,[RZ]
  2529 000021C4 66A3[00000000]          mov [RX],AX
  2530                                 
  2531                                 
  2532                                 L37:
  2533                                 
  2534 000021CA 66A1[00000000]          mov AX,[RX]
  2535 000021D0 98                      cwde
  2536 000021D1 05[00000000]            add EAX,list
  2537 000021D6 89C3                    mov EBX,EAX
  2538 000021D8 668B03                  mov AX,[EBX]
  2539 000021DB 66A3[00000000]          mov [RX],AX
  2540 000021E1 668B4302                mov AX,[EBX+2]
  2541 000021E5 6689C2                  mov DX,AX
  2542 000021E8 6683E203                and DX,3
  2543 000021EC 668915[04000000]        mov [RX+4],DX
  2544 000021F3 66C1F802                sar AX,2
  2545 000021F7 66A3[02000000]          mov [RX+2],AX
  2546                                 
  2547 000021FD 66A1[00000000]          mov AX,[RY]
  2548 00002203 98                      cwde
  2549 00002204 05[00000000]            add EAX,list
  2550 00002209 89C3                    mov EBX,EAX
  2551 0000220B 668B03                  mov AX,[EBX]
  2552 0000220E 66A3[00000000]          mov [RY],AX
  2553 00002214 668B4302                mov AX,[EBX+2]
  2554 00002218 6689C2                  mov DX,AX
  2555 0000221B 6683E203                and DX,3
  2556 0000221F 668915[04000000]        mov [RY+4],DX
  2557 00002226 66C1F802                sar AX,2
  2558 0000222A 66A3[02000000]          mov [RY+2],AX
  2559                                 
  2560 00002230 66A1[02000000]          mov AX,[RX+2]
  2561 00002236 663B05[02000000]        cmp AX,[RY+2]
  2562 0000223D 0F859A010000            jnz L41
  2563                                 
  2564 00002243 66FF0D[02000000]        dec word [RZ+2]
  2565                                 
  2566 0000224A 66A1[02000000]          mov AX,[RZ+2]
  2567 00002250 6609C0                  or AX,AX
  2568 00002253 0F856BFFFFFF            jnz L37
  2569                                 
  2570                                 
  2571                                 L38:
  2572                                 
  2573 00002259 66A1[02000000]          mov AX,[RI+2]
  2574 0000225F 663B05[02000000]        cmp AX,[RE+2]
  2575 00002266 0F8561E5FFFF            jnz L05
  2576                                 
  2577 0000226C E980010000              jmp L42
  2578                                 
  2579                                 
  2580                                 L39:
  2581                                 
  2582 00002271 66A1[00000000]          mov AX,[RK]
  2583 00002277 98                      cwde
  2584 00002278 05[00000000]            add EAX,list
  2585 0000227D 89C3                    mov EBX,EAX
  2586 0000227F 668B03                  mov AX,[EBX]
  2587 00002282 66A3[00000000]          mov [RI],AX
  2588 00002288 668B4302                mov AX,[EBX+2]
  2589 0000228C 6689C2                  mov DX,AX
  2590 0000228F 6683E203                and DX,3
  2591 00002293 668915[04000000]        mov [RI+4],DX
  2592 0000229A 66C1F802                sar AX,2
  2593 0000229E 66A3[02000000]          mov [RI+2],AX
  2594                                 
  2595 000022A4 66A1[00000000]          mov AX,[RK]
  2596 000022AA 6683C004                add AX,4
  2597 000022AE 66A3[00000000]          mov [RK],AX
  2598                                 
  2599 000022B4 66A1[00000000]          mov AX,[RV]
  2600 000022BA 98                      cwde
  2601 000022BB 05[00000000]            add EAX,list
  2602 000022C0 89C3                    mov EBX,EAX
  2603 000022C2 668B03                  mov AX,[EBX]
  2604 000022C5 66A3[00000000]          mov [RY],AX
  2605 000022CB 668B4302                mov AX,[EBX+2]
  2606 000022CF 6689C2                  mov DX,AX
  2607 000022D2 6683E203                and DX,3
  2608 000022D6 668915[04000000]        mov [RY+4],DX
  2609 000022DD 66C1F802                sar AX,2
  2610 000022E1 66A3[02000000]          mov [RY+2],AX
  2611                                 
  2612 000022E7 66A1[04000000]          mov AX,[RY+4]
  2613 000022ED 6683F803                cmp AX,3
  2614 000022F1 0F846EF4FFFF            jz L23
  2615                                 
  2616 000022F7 B8[00000000]            mov EAX,G10
  2617 000022FC 2D[00000000]            sub EAX,progr
  2618 00002301 66A3[00000000]          mov [RP],AX
  2619 00002307 E94E170000              jmp L74
  2620                                 G10:
  2621                                 
  2622 0000230C 66A1[00000000]          mov AX,[RN]
  2623 00002312 66A3[00000000]          mov [RI],AX
  2624                                 
  2625 00002318 66A1[00000000]          mov AX,[RJ]
  2626 0000231E 660305[00000000]        add AX,[R4]
  2627 00002325 66A3[00000000]          mov [RV],AX
  2628                                 
  2629 0000232B 98                      cwde
  2630 0000232C 05[00000000]            add EAX,list
  2631 00002331 89C3                    mov EBX,EAX
  2632 00002333 668B03                  mov AX,[EBX]
  2633 00002336 66A3[00000000]          mov [RY],AX
  2634 0000233C 668B4302                mov AX,[EBX+2]
  2635 00002340 6689C2                  mov DX,AX
  2636 00002343 6683E203                and DX,3
  2637 00002347 668915[04000000]        mov [RY+4],DX
  2638 0000234E 66C1F802                sar AX,2
  2639 00002352 66A3[02000000]          mov [RY+2],AX
  2640                                 
  2641 00002358 66A1[04000000]          mov AX,[RY+4]
  2642 0000235E 6683F803                cmp AX,3
  2643 00002362 0F84FDF3FFFF            jz L23
  2644                                 
  2645 00002368 B8[00000000]            mov EAX,G11
  2646 0000236D 2D[00000000]            sub EAX,progr
  2647 00002372 66A3[00000000]          mov [RP],AX
  2648 00002378 E9DD160000              jmp L74
  2649                                 G11:
  2650                                 
  2651 0000237D 66A1[00000000]          mov AX,[RJ]
  2652 00002383 660305[00000000]        add AX,[R4]
  2653 0000238A 66A3[00000000]          mov [RV],AX
  2654                                 
  2655 00002390 6683C004                add AX,4
  2656 00002394 66A3[00000000]          mov [RV],AX
  2657                                 
  2658 0000239A 66A1[00000000]          mov AX,[RN]
  2659 000023A0 662B05[00000000]        sub AX,[RI]
  2660 000023A7 66A3[00000000]          mov [RN],AX
  2661                                 
  2662 000023AD 6609C0                  or AX,AX
  2663 000023B0 0F849DFEFFFF            jz L38
  2664                                 
  2665 000023B6 6609C0                  or AX,AX
  2666 000023B9 7D13                    jge L40
  2667                                 
  2668 000023BB 66A1[02000000]          mov AX,[RI+2]
  2669 000023C1 663B05[02000000]        cmp AX,[RO+2]
  2670 000023C8 0F84FFE3FFFF            jz L05
  2671                                 
  2672 000023CE EB11                    jmp L41
  2673                                 
  2674                                 
  2675                                 L40:
  2676                                 
  2677 000023D0 66A1[02000000]          mov AX,[RI+2]
  2678 000023D6 663B05[02000000]        cmp AX,[RN+2]
  2679 000023DD 0F84EAE3FFFF            jz L05
  2680                                 
  2681                                 
  2682                                 L41:
  2683                                 
  2684 000023E3 66A1[02000000]          mov AX,[RI+2]
  2685 000023E9 663B05[02000000]        cmp AX,[RE+2]
  2686 000023F0 0F84D7E3FFFF            jz L05
  2687                                 
  2688                                 
  2689                                 L42:
  2690                                 
  2691 000023F6 66A1[00000000]          mov AX,[RV]
  2692 000023FC 98                      cwde
  2693 000023FD 05[00000000]            add EAX,list
  2694 00002402 89C3                    mov EBX,EAX
  2695 00002404 668B03                  mov AX,[EBX]
  2696 00002407 66A3[00000000]          mov [RY],AX
  2697 0000240D 668B4302                mov AX,[EBX+2]
  2698 00002411 6689C2                  mov DX,AX
  2699 00002414 6683E203                and DX,3
  2700 00002418 668915[04000000]        mov [RY+4],DX
  2701 0000241F 66C1F802                sar AX,2
  2702 00002423 66A3[02000000]          mov [RY+2],AX
  2703                                 
  2704 00002429 66A1[04000000]          mov AX,[RY+4]
  2705 0000242F 6683F803                cmp AX,3
  2706 00002433 0F842CF3FFFF            jz L23
  2707                                 
  2708 00002439 66A1[02000000]          mov AX,[RY+2]
  2709 0000243F 6609C0                  or AX,AX
  2710 00002442 0F8485E3FFFF            jz L05
  2711                                 
  2712 00002448 B8[00000000]            mov EAX,G12
  2713 0000244D 2D[00000000]            sub EAX,progr
  2714 00002452 66A3[00000000]          mov [RP],AX
  2715 00002458 E9FD150000              jmp L74
  2716                                 G12:
  2717                                 
  2718 0000245D 66A1[00000000]          mov AX,[RN]
  2719 00002463 66A3[00000000]          mov [RM],AX
  2720                                 
  2721 00002469 E960E3FFFF              jmp L05
  2722                                 
  2723                                 
  2724                                 L43:
  2725                                 
  2726 0000246E 66A1[00000000]          mov AX,[RC]
  2727 00002474 662B05[00000000]        sub AX,[R9]
  2728 0000247B 66A3[00000000]          mov [RY],AX
  2729                                 
  2730 00002481 66C1F802                sar AX,2
  2731 00002485 66A3[00000000]          mov [RY],AX
  2732                                 
  2733 0000248B 66A3[02000000]          mov [RY+2],AX
  2734                                 
  2735 00002491 6609C0                  or AX,AX
  2736 00002494 0F84F9E4FFFF            jz L07
  2737                                 
  2738 0000249A 66A1[00000000]          mov AX,[RC]
  2739 000024A0 66A3[00000000]          mov [RY],AX
  2740                                 
  2741 000024A6 B8[00000000]            mov EAX,G13
  2742 000024AB 2D[00000000]            sub EAX,progr
  2743 000024B0 66A3[00000000]          mov [RP],AX
  2744 000024B6 E99F150000              jmp L74
  2745                                 G13:
  2746                                 
  2747 000024BB 66B80100                mov AX,1
  2748 000024BF 66A3[04000000]          mov [RY+4],AX
  2749                                 
  2750 000024C5 6631C0                  xor AX,AX
  2751 000024C8 66A3[02000000]          mov [RY+2],AX
  2752                                 
  2753 000024CE 66A1[00000000]          mov AX,[RN]
  2754 000024D4 6640                    inc AX
  2755 000024D6 66A3[00000000]          mov [RY],AX
  2756                                 
  2757 000024DC 66A1[00000000]          mov AX,[RC]
  2758 000024E2 98                      cwde
  2759 000024E3 05[00000000]            add EAX,list
  2760 000024E8 89C3                    mov EBX,EAX
  2761 000024EA 66A1[02000000]          mov AX,[RR+2]
  2762 000024F0 66C1E002                sal AX,2
  2763 000024F4 660B05[04000000]        or AX,[RR+4]
  2764 000024FB C1E010                  sal EAX,16
  2765 000024FE 66A1[00000000]          mov AX,[RR]
  2766 00002504 8903                    mov [EBX],EAX
  2767                                 
  2768 00002506 66A1[00000000]          mov AX,[RR]
  2769 0000250C 66A3[00000000]          mov [RZ],AX
  2770                                 
  2771 00002512 66A1[00000000]          mov AX,[RC]
  2772 00002518 66A3[00000000]          mov [RR],AX
  2773                                 
  2774 0000251E 66A1[00000000]          mov AX,[RC]
  2775 00002524 662B05[00000000]        sub AX,[R4]
  2776 0000252B 66A3[00000000]          mov [RC],AX
  2777                                 
  2778 00002531 98                      cwde
  2779 00002532 05[00000000]            add EAX,list
  2780 00002537 89C3                    mov EBX,EAX
  2781 00002539 66A1[02000000]          mov AX,[RK+2]
  2782 0000253F 66C1E002                sal AX,2
  2783 00002543 660B05[04000000]        or AX,[RK+4]
  2784 0000254A C1E010                  sal EAX,16
  2785 0000254D 66A1[00000000]          mov AX,[RK]
  2786 00002553 8903                    mov [EBX],EAX
  2787                                 
  2788                                 
  2789                                 L44:
  2790                                 
  2791 00002555 66A1[00000000]          mov AX,[RR]
  2792 0000255B 66A3[00000000]          mov [RC],AX
  2793                                 
  2794 00002561 66A1[00000000]          mov AX,[RZ]
  2795 00002567 66A3[00000000]          mov [RR],AX
  2796                                 
  2797 0000256D 66FF0D[00000000]        dec word [RY]
  2798                                 
  2799 00002574 6631C0                  xor AX,AX
  2800 00002577 663B05[00000000]        cmp AX,[RY]
  2801 0000257E 0F8D49E2FFFF            jge L05
  2802                                 
  2803 00002584 66A1[00000000]          mov AX,[RC]
  2804 0000258A 66A3[00000000]          mov [RR],AX
  2805                                 
  2806 00002590 66A1[00000000]          mov AX,[RC]
  2807 00002596 6683E804                sub AX,4
  2808 0000259A 66A3[00000000]          mov [RC],AX
  2809                                 
  2810 000025A0 98                      cwde
  2811 000025A1 05[00000000]            add EAX,list
  2812 000025A6 89C3                    mov EBX,EAX
  2813 000025A8 66A1[02000000]          mov AX,[RY+2]
  2814 000025AE 66C1E002                sal AX,2
  2815 000025B2 660B05[04000000]        or AX,[RY+4]
  2816 000025B9 C1E010                  sal EAX,16
  2817 000025BC 66A1[00000000]          mov AX,[RY]
  2818 000025C2 8903                    mov [EBX],EAX
  2819                                 
  2820 000025C4 66A1[00000000]          mov AX,[RC]
  2821 000025CA 6683E804                sub AX,4
  2822 000025CE 66A3[00000000]          mov [RC],AX
  2823                                 
  2824 000025D4 98                      cwde
  2825 000025D5 05[00000000]            add EAX,list
  2826 000025DA 89C3                    mov EBX,EAX
  2827 000025DC 668B03                  mov AX,[EBX]
  2828 000025DF 66A3[00000000]          mov [RK],AX
  2829 000025E5 668B4302                mov AX,[EBX+2]
  2830 000025E9 6689C2                  mov DX,AX
  2831 000025EC 6683E203                and DX,3
  2832 000025F0 668915[04000000]        mov [RK+4],DX
  2833 000025F7 66C1F802                sar AX,2
  2834 000025FB 66A3[02000000]          mov [RK+2],AX
  2835                                 
  2836 00002601 66A1[00000000]          mov AX,[RC]
  2837 00002607 6683E804                sub AX,4
  2838 0000260B 66A3[00000000]          mov [RC],AX
  2839                                 
  2840 00002611 E9B8E1FFFF              jmp L05
  2841                                 
  2842                                 
  2843                                 L45:
  2844                                 
  2845 00002616 66A1[00000000]          mov AX,[R9]
  2846 0000261C 98                      cwde
  2847 0000261D 05[00000000]            add EAX,list
  2848 00002622 89C3                    mov EBX,EAX
  2849 00002624 66A1[02000000]          mov AX,[RL+2]
  2850 0000262A 66C1E002                sal AX,2
  2851 0000262E 660B05[04000000]        or AX,[RL+4]
  2852 00002635 C1E010                  sal EAX,16
  2853 00002638 66A1[00000000]          mov AX,[RL]
  2854 0000263E 8903                    mov [EBX],EAX
  2855                                 
  2856 00002640 66A1[00000000]          mov AX,[RC]
  2857 00002646 662B05[00000000]        sub AX,[R9]
  2858 0000264D 66A3[00000000]          mov [RW],AX
  2859                                 
  2860 00002653 66C1F802                sar AX,2
  2861 00002657 66A3[00000000]          mov [RW],AX
  2862                                 
  2863 0000265D 6631C0                  xor AX,AX
  2864 00002660 66A3[04000000]          mov [RW+4],AX
  2865                                 
  2866 00002666 66A1[00000000]          mov AX,[RW]
  2867 0000266C 66A3[02000000]          mov [RW+2],AX
  2868                                 
  2869 00002672 66A1[00000000]          mov AX,[RC]
  2870 00002678 66A3[00000000]          mov [RW],AX
  2871                                 
  2872 0000267E 66A1[00000000]          mov AX,[R9]
  2873 00002684 6683E804                sub AX,4
  2874 00002688 66A3[00000000]          mov [R9],AX
  2875                                 
  2876 0000268E 66B80200                mov AX,2
  2877 00002692 66A3[04000000]          mov [RB+4],AX
  2878                                 
  2879 00002698 6631C0                  xor AX,AX
  2880 0000269B 66A3[00000000]          mov [RB],AX
  2881                                 
  2882 000026A1 6631C0                  xor AX,AX
  2883 000026A4 66A3[04000000]          mov [RU+4],AX
  2884                                 
  2885 000026AA 66A1[02000000]          mov AX,[RR+2]
  2886 000026B0 66A3[02000000]          mov [RU+2],AX
  2887                                 
  2888 000026B6 66B80400                mov AX,4
  2889 000026BA 66A3[00000000]          mov [RU],AX
  2890                                 
  2891 000026C0 66B80100                mov AX,1
  2892 000026C4 66A3[04000000]          mov [RZ+4],AX
  2893                                 
  2894 000026CA 6631C0                  xor AX,AX
  2895 000026CD 66A3[02000000]          mov [RZ+2],AX
  2896                                 
  2897 000026D3 6631C0                  xor AX,AX
  2898 000026D6 66A3[00000000]          mov [RZ],AX
  2899                                 
  2900 000026DC 66A1[00000000]          mov AX,[R9]
  2901 000026E2 6683E804                sub AX,4
  2902 000026E6 66A3[00000000]          mov [RX],AX
  2903                                 
  2904                                 
  2905                                 L46:
  2906                                 
  2907 000026EC 66FF05[02000000]        inc word [RZ+2]
  2908                                 
  2909 000026F3 66A1[00000000]          mov AX,[R9]
  2910 000026F9 98                      cwde
  2911 000026FA 05[00000000]            add EAX,list
  2912 000026FF 89C3                    mov EBX,EAX
  2913 00002701 66A1[02000000]          mov AX,[RZ+2]
  2914 00002707 66C1E002                sal AX,2
  2915 0000270B 660B05[04000000]        or AX,[RZ+4]
  2916 00002712 C1E010                  sal EAX,16
  2917 00002715 66A1[00000000]          mov AX,[RZ]
  2918 0000271B 8903                    mov [EBX],EAX
  2919                                 
  2920 0000271D 66A1[00000000]          mov AX,[R9]
  2921 00002723 6683E804                sub AX,4
  2922 00002727 66A3[00000000]          mov [R9],AX
  2923                                 
  2924 0000272D 98                      cwde
  2925 0000272E 05[00000000]            add EAX,list
  2926 00002733 89C3                    mov EBX,EAX
  2927 00002735 66A1[02000000]          mov AX,[RU+2]
  2928 0000273B 66C1E002                sal AX,2
  2929 0000273F 660B05[04000000]        or AX,[RU+4]
  2930 00002746 C1E010                  sal EAX,16
  2931 00002749 66A1[00000000]          mov AX,[RU]
  2932 0000274F 8903                    mov [EBX],EAX
  2933                                 
  2934 00002751 66A1[00000000]          mov AX,[R9]
  2935 00002757 6683E804                sub AX,4
  2936 0000275B 66A3[00000000]          mov [R9],AX
  2937                                 
  2938 00002761 98                      cwde
  2939 00002762 05[00000000]            add EAX,list
  2940 00002767 89C3                    mov EBX,EAX
  2941 00002769 66A1[02000000]          mov AX,[RB+2]
  2942 0000276F 66C1E002                sal AX,2
  2943 00002773 660B05[04000000]        or AX,[RB+4]
  2944 0000277A C1E010                  sal EAX,16
  2945 0000277D 66A1[00000000]          mov AX,[RB]
  2946 00002783 8903                    mov [EBX],EAX
  2947                                 
  2948 00002785 66A1[00000000]          mov AX,[R9]
  2949 0000278B 6683E804                sub AX,4
  2950 0000278F 66A3[00000000]          mov [R9],AX
  2951                                 
  2952 00002795 66A1[00000000]          mov AX,[RK]
  2953 0000279B 6683C004                add AX,4
  2954 0000279F 66A3[00000000]          mov [RK],AX
  2955                                 
  2956 000027A5 98                      cwde
  2957 000027A6 05[00000000]            add EAX,list
  2958 000027AB 89C3                    mov EBX,EAX
  2959 000027AD 668B03                  mov AX,[EBX]
  2960 000027B0 66A3[00000000]          mov [RI],AX
  2961 000027B6 668B4302                mov AX,[EBX+2]
  2962 000027BA 6689C2                  mov DX,AX
  2963 000027BD 6683E203                and DX,3
  2964 000027C1 668915[04000000]        mov [RI+4],DX
  2965 000027C8 66C1F802                sar AX,2
  2966 000027CC 66A3[02000000]          mov [RI+2],AX
  2967                                 
  2968 000027D2 66A1[00000000]          mov AX,[RX]
  2969 000027D8 662B05[00000000]        sub AX,[R9]
  2970 000027DF 66A3[00000000]          mov [RI],AX
  2971                                 
  2972 000027E5 66A1[00000000]          mov AX,[R9]
  2973 000027EB 98                      cwde
  2974 000027EC 05[00000000]            add EAX,list
  2975 000027F1 89C3                    mov EBX,EAX
  2976 000027F3 66A1[02000000]          mov AX,[RI+2]
  2977 000027F9 66C1E002                sal AX,2
  2978 000027FD 660B05[04000000]        or AX,[RI+4]
  2979 00002804 C1E010                  sal EAX,16
  2980 00002807 66A1[00000000]          mov AX,[RI]
  2981 0000280D 8903                    mov [EBX],EAX
  2982                                 
  2983 0000280F 66A1[00000000]          mov AX,[R9]
  2984 00002815 66A3[00000000]          mov [RX],AX
  2985                                 
  2986 0000281B 66A1[00000000]          mov AX,[R9]
  2987 00002821 6683E804                sub AX,4
  2988 00002825 66A3[00000000]          mov [R9],AX
  2989                                 
  2990 0000282B 66A1[00000000]          mov AX,[R8]
  2991 00002831 663B05[00000000]        cmp AX,[R9]
  2992 00002838 0F8DA31A0000            jge L97
  2993                                 
  2994 0000283E 66A1[04000000]          mov AX,[RI+4]
  2995 00002844 6683F801                cmp AX,1
  2996 00002848 0F8598FEFFFF            jnz L46
  2997                                 
  2998 0000284E 66A1[00000000]          mov AX,[R9]
  2999 00002854 98                      cwde
  3000 00002855 05[00000000]            add EAX,list
  3001 0000285A 89C3                    mov EBX,EAX
  3002 0000285C 66A1[02000000]          mov AX,[RB+2]
  3003 00002862 66C1E002                sal AX,2
  3004 00002866 660B05[04000000]        or AX,[RB+4]
  3005 0000286D C1E010                  sal EAX,16
  3006 00002870 66A1[00000000]          mov AX,[RB]
  3007 00002876 8903                    mov [EBX],EAX
  3008                                 
  3009 00002878 6631C0                  xor AX,AX
  3010 0000287B 66A3[04000000]          mov [RB+4],AX
  3011                                 
  3012 00002881 66A1[00000000]          mov AX,[R9]
  3013 00002887 66A3[00000000]          mov [RZ],AX
  3014                                 
  3015 0000288D 66A1[00000000]          mov AX,[R9]
  3016 00002893 6683E804                sub AX,4
  3017 00002897 66A3[00000000]          mov [R9],AX
  3018                                 
  3019 0000289D 66A1[02000000]          mov AX,[RM+2]
  3020 000028A3 66A3[02000000]          mov [RU+2],AX
  3021                                 
  3022 000028A9 66A1[00000000]          mov AX,[R9]
  3023 000028AF 98                      cwde
  3024 000028B0 05[00000000]            add EAX,list
  3025 000028B5 89C3                    mov EBX,EAX
  3026 000028B7 66A1[02000000]          mov AX,[RU+2]
  3027 000028BD 66C1E002                sal AX,2
  3028 000028C1 660B05[04000000]        or AX,[RU+4]
  3029 000028C8 C1E010                  sal EAX,16
  3030 000028CB 66A1[00000000]          mov AX,[RU]
  3031 000028D1 8903                    mov [EBX],EAX
  3032                                 
  3033 000028D3 66A1[00000000]          mov AX,[R9]
  3034 000028D9 6683E804                sub AX,4
  3035 000028DD 66A3[00000000]          mov [R9],AX
  3036                                 
  3037 000028E3 98                      cwde
  3038 000028E4 05[00000000]            add EAX,list
  3039 000028E9 89C3                    mov EBX,EAX
  3040 000028EB 66A1[02000000]          mov AX,[RR+2]
  3041 000028F1 66C1E002                sal AX,2
  3042 000028F5 660B05[04000000]        or AX,[RR+4]
  3043 000028FC C1E010                  sal EAX,16
  3044 000028FF 66A1[00000000]          mov AX,[RR]
  3045 00002905 8903                    mov [EBX],EAX
  3046                                 
  3047 00002907 66A1[00000000]          mov AX,[R9]
  3048 0000290D 6683E804                sub AX,4
  3049 00002911 66A3[00000000]          mov [R9],AX
  3050                                 
  3051 00002917 98                      cwde
  3052 00002918 05[00000000]            add EAX,list
  3053 0000291D 89C3                    mov EBX,EAX
  3054 0000291F 66A1[02000000]          mov AX,[RC+2]
  3055 00002925 66C1E002                sal AX,2
  3056 00002929 660B05[04000000]        or AX,[RC+4]
  3057 00002930 C1E010                  sal EAX,16
  3058 00002933 66A1[00000000]          mov AX,[RC]
  3059 00002939 8903                    mov [EBX],EAX
  3060                                 
  3061 0000293B 66A1[00000000]          mov AX,[R9]
  3062 00002941 6683E804                sub AX,4
  3063 00002945 66A3[00000000]          mov [R9],AX
  3064                                 
  3065 0000294B 98                      cwde
  3066 0000294C 05[00000000]            add EAX,list
  3067 00002951 89C3                    mov EBX,EAX
  3068 00002953 66A1[02000000]          mov AX,[RV+2]
  3069 00002959 66C1E002                sal AX,2
  3070 0000295D 660B05[04000000]        or AX,[RV+4]
  3071 00002964 C1E010                  sal EAX,16
  3072 00002967 66A1[00000000]          mov AX,[RV]
  3073 0000296D 8903                    mov [EBX],EAX
  3074                                 
  3075 0000296F 66A1[00000000]          mov AX,[R9]
  3076 00002975 6683E804                sub AX,4
  3077 00002979 66A3[00000000]          mov [R9],AX
  3078                                 
  3079 0000297F 98                      cwde
  3080 00002980 05[00000000]            add EAX,list
  3081 00002985 89C3                    mov EBX,EAX
  3082 00002987 66A1[02000000]          mov AX,[RY+2]
  3083 0000298D 66C1E002                sal AX,2
  3084 00002991 660B05[04000000]        or AX,[RY+4]
  3085 00002998 C1E010                  sal EAX,16
  3086 0000299B 66A1[00000000]          mov AX,[RY]
  3087 000029A1 8903                    mov [EBX],EAX
  3088                                 
  3089 000029A3 66A1[00000000]          mov AX,[R9]
  3090 000029A9 6683E804                sub AX,4
  3091 000029AD 66A3[00000000]          mov [RR],AX
  3092                                 
  3093 000029B3 98                      cwde
  3094 000029B4 05[00000000]            add EAX,list
  3095 000029B9 89C3                    mov EBX,EAX
  3096 000029BB 66A1[02000000]          mov AX,[RZ+2]
  3097 000029C1 66C1E002                sal AX,2
  3098 000029C5 660B05[04000000]        or AX,[RZ+4]
  3099 000029CC C1E010                  sal EAX,16
  3100 000029CF 66A1[00000000]          mov AX,[RZ]
  3101 000029D5 8903                    mov [EBX],EAX
  3102                                 
  3103 000029D7 66A1[00000000]          mov AX,[RR]
  3104 000029DD 6683E804                sub AX,4
  3105 000029E1 66A3[00000000]          mov [R9],AX
  3106                                 
  3107 000029E7 98                      cwde
  3108 000029E8 05[00000000]            add EAX,list
  3109 000029ED 89C3                    mov EBX,EAX
  3110 000029EF 66A1[02000000]          mov AX,[RW+2]
  3111 000029F5 66C1E002                sal AX,2
  3112 000029F9 660B05[04000000]        or AX,[RW+4]
  3113 00002A00 C1E010                  sal EAX,16
  3114 00002A03 66A1[00000000]          mov AX,[RW]
  3115 00002A09 8903                    mov [EBX],EAX
  3116                                 
  3117 00002A0B 66A1[00000000]          mov AX,[R9]
  3118 00002A11 662B05[00000000]        sub AX,[R4]
  3119 00002A18 66A3[00000000]          mov [R9],AX
  3120                                 
  3121 00002A1E 98                      cwde
  3122 00002A1F 05[00000000]            add EAX,list
  3123 00002A24 89C3                    mov EBX,EAX
  3124 00002A26 66A1[02000000]          mov AX,[RK+2]
  3125 00002A2C 66C1E002                sal AX,2
  3126 00002A30 660B05[04000000]        or AX,[RK+4]
  3127 00002A37 C1E010                  sal EAX,16
  3128 00002A3A 66A1[00000000]          mov AX,[RK]
  3129 00002A40 8903                    mov [EBX],EAX
  3130                                 
  3131 00002A42 66A1[00000000]          mov AX,[RZ]
  3132 00002A48 6683E804                sub AX,4
  3133 00002A4C 66A3[00000000]          mov [RZ],AX
  3134                                 
  3135 00002A52 EB3A                    jmp L48
  3136                                 
  3137                                 
  3138                                 L47:
  3139                                 
  3140 00002A54 66A1[00000000]          mov AX,[RR]
  3141 00002A5A 6609C0                  or AX,AX
  3142 00002A5D 0F846ADDFFFF            jz L05
  3143                                 
  3144 00002A63 98                      cwde
  3145 00002A64 05[00000000]            add EAX,list
  3146 00002A69 89C3                    mov EBX,EAX
  3147 00002A6B 668B03                  mov AX,[EBX]
  3148 00002A6E 66A3[00000000]          mov [RZ],AX
  3149 00002A74 668B4302                mov AX,[EBX+2]
  3150 00002A78 6689C2                  mov DX,AX
  3151 00002A7B 6683E203                and DX,3
  3152 00002A7F 668915[04000000]        mov [RZ+4],DX
  3153 00002A86 66C1F802                sar AX,2
  3154 00002A8A 66A3[02000000]          mov [RZ+2],AX
  3155                                 
  3156                                 
  3157                                 L48:
  3158                                 
  3159 00002A90 66A1[00000000]          mov AX,[RR]
  3160 00002A96 6683E804                sub AX,4
  3161 00002A9A 66A3[00000000]          mov [RU],AX
  3162                                 
  3163 00002AA0 98                      cwde
  3164 00002AA1 05[00000000]            add EAX,list
  3165 00002AA6 89C3                    mov EBX,EAX
  3166 00002AA8 668B03                  mov AX,[EBX]
  3167 00002AAB 66A3[00000000]          mov [RY],AX
  3168 00002AB1 668B4302                mov AX,[EBX+2]
  3169 00002AB5 6689C2                  mov DX,AX
  3170 00002AB8 6683E203                and DX,3
  3171 00002ABC 668915[04000000]        mov [RY+4],DX
  3172 00002AC3 66C1F802                sar AX,2
  3173 00002AC7 66A3[02000000]          mov [RY+2],AX
  3174                                 
  3175 00002ACD 66A1[04000000]          mov AX,[RY+4]
  3176 00002AD3 6683F801                cmp AX,1
  3177 00002AD7 0F8472FAFFFF            jz L44
  3178                                 
  3179 00002ADD 66A1[02000000]          mov AX,[RY+2]
  3180 00002AE3 6609C0                  or AX,AX
  3181 00002AE6 0F8425020000            jz L49
  3182                                 
  3183 00002AEC 66A1[00000000]          mov AX,[RU]
  3184 00002AF2 98                      cwde
  3185 00002AF3 05[00000000]            add EAX,list
  3186 00002AF8 89C3                    mov EBX,EAX
  3187 00002AFA 31C0                    xor EAX,EAX
  3188 00002AFC 8903                    mov [EBX],EAX
  3189                                 
  3190 00002AFE 66A1[00000000]          mov AX,[RU]
  3191 00002B04 662B05[00000000]        sub AX,[R4]
  3192 00002B0B 66A3[00000000]          mov [RU],AX
  3193                                 
  3194 00002B11 98                      cwde
  3195 00002B12 05[00000000]            add EAX,list
  3196 00002B17 89C3                    mov EBX,EAX
  3197 00002B19 668B03                  mov AX,[EBX]
  3198 00002B1C 66A3[00000000]          mov [RK],AX
  3199 00002B22 668B4302                mov AX,[EBX+2]
  3200 00002B26 6689C2                  mov DX,AX
  3201 00002B29 6683E203                and DX,3
  3202 00002B2D 668915[04000000]        mov [RK+4],DX
  3203 00002B34 66C1F802                sar AX,2
  3204 00002B38 66A3[02000000]          mov [RK+2],AX
  3205                                 
  3206 00002B3E 66A1[00000000]          mov AX,[RU]
  3207 00002B44 66A3[00000000]          mov [RV],AX
  3208                                 
  3209 00002B4A 66A1[00000000]          mov AX,[RU]
  3210 00002B50 6683E804                sub AX,4
  3211 00002B54 66A3[00000000]          mov [R9],AX
  3212                                 
  3213 00002B5A 66A3[00000000]          mov [RC],AX
  3214                                 
  3215 00002B60 66A1[00000000]          mov AX,[RY]
  3216 00002B66 98                      cwde
  3217 00002B67 05[00000000]            add EAX,list
  3218 00002B6C 89C3                    mov EBX,EAX
  3219 00002B6E 668B03                  mov AX,[EBX]
  3220 00002B71 66A3[00000000]          mov [RX],AX
  3221 00002B77 668B4302                mov AX,[EBX+2]
  3222 00002B7B 6689C2                  mov DX,AX
  3223 00002B7E 6683E203                and DX,3
  3224 00002B82 668915[04000000]        mov [RX+4],DX
  3225 00002B89 66C1F802                sar AX,2
  3226 00002B8D 66A3[02000000]          mov [RX+2],AX
  3227                                 
  3228 00002B93 B8[00000000]            mov EAX,G14
  3229 00002B98 2D[00000000]            sub EAX,progr
  3230 00002B9D 66A3[00000000]          mov [RB],AX
  3231 00002BA3 E9C3000000              jmp L99
  3232                                 G14:
  3233                                 
  3234 00002BA8 66A1[00000000]          mov AX,[RR]
  3235 00002BAE 660305[00000000]        add AX,[R4]
  3236 00002BB5 66A3[00000000]          mov [RY],AX
  3237                                 
  3238 00002BBB 98                      cwde
  3239 00002BBC 05[00000000]            add EAX,list
  3240 00002BC1 89C3                    mov EBX,EAX
  3241 00002BC3 668B03                  mov AX,[EBX]
  3242 00002BC6 66A3[00000000]          mov [RW],AX
  3243 00002BCC 668B4302                mov AX,[EBX+2]
  3244 00002BD0 6689C2                  mov DX,AX
  3245 00002BD3 6683E203                and DX,3
  3246 00002BD7 668915[04000000]        mov [RW+4],DX
  3247 00002BDE 66C1F802                sar AX,2
  3248 00002BE2 66A3[02000000]          mov [RW+2],AX
  3249                                 
  3250 00002BE8 66A1[00000000]          mov AX,[RR]
  3251 00002BEE 662B05[00000000]        sub AX,[R4]
  3252 00002BF5 66A3[00000000]          mov [RY],AX
  3253                                 
  3254 00002BFB 66A1[00000000]          mov AX,[R8]
  3255 00002C01 663B05[00000000]        cmp AX,[RY]
  3256 00002C08 0F8DD3160000            jge L97
  3257                                 
  3258 00002C0E 66A1[00000000]          mov AX,[RY]
  3259 00002C14 98                      cwde
  3260 00002C15 05[00000000]            add EAX,list
  3261 00002C1A 89C3                    mov EBX,EAX
  3262 00002C1C 668B03                  mov AX,[EBX]
  3263 00002C1F 66A3[00000000]          mov [RY],AX
  3264 00002C25 668B4302                mov AX,[EBX+2]
  3265 00002C29 6689C2                  mov DX,AX
  3266 00002C2C 6683E203                and DX,3
  3267 00002C30 668915[04000000]        mov [RY+4],DX
  3268 00002C37 66C1F802                sar AX,2
  3269 00002C3B 66A3[02000000]          mov [RY+2],AX
  3270                                 
  3271 00002C41 66A1[00000000]          mov AX,[RW]
  3272 00002C47 98                      cwde
  3273 00002C48 05[00000000]            add EAX,list
  3274 00002C4D 89C3                    mov EBX,EAX
  3275 00002C4F 66A1[02000000]          mov AX,[RY+2]
  3276 00002C55 66C1E002                sal AX,2
  3277 00002C59 660B05[04000000]        or AX,[RY+4]
  3278 00002C60 C1E010                  sal EAX,16
  3279 00002C63 66A1[00000000]          mov AX,[RY]
  3280 00002C69 8903                    mov [EBX],EAX
  3281                                 
  3282 00002C6B E95EDBFFFF              jmp L05
  3283                                 
  3284                                 
  3285                                 L99:
  3286                                 
  3287 00002C70 66A1[02000000]          mov AX,[RZ+2]
  3288 00002C76 6683F801                cmp AX,1
  3289 00002C7A 0F8507070000            jnz L60
  3290                                 
  3291 00002C80 6631C0                  xor AX,AX
  3292 00002C83 66A3[04000000]          mov [RX+4],AX
  3293                                 
  3294 00002C89 66A1[02000000]          mov AX,[RY+2]
  3295 00002C8F 6648                    dec AX
  3296 00002C91 66A3[02000000]          mov [RX+2],AX
  3297                                 
  3298 00002C97 66B80100                mov AX,1
  3299 00002C9B 66A3[02000000]          mov [RY+2],AX
  3300                                 
  3301 00002CA1 66A1[00000000]          mov AX,[RU]
  3302 00002CA7 6683C004                add AX,4
  3303 00002CAB 66A3[00000000]          mov [RU],AX
  3304                                 
  3305 00002CB1 98                      cwde
  3306 00002CB2 05[00000000]            add EAX,list
  3307 00002CB7 89C3                    mov EBX,EAX
  3308 00002CB9 66A1[02000000]          mov AX,[RY+2]
  3309 00002CBF 66C1E002                sal AX,2
  3310 00002CC3 660B05[04000000]        or AX,[RY+4]
  3311 00002CCA C1E010                  sal EAX,16
  3312 00002CCD 66A1[00000000]          mov AX,[RY]
  3313 00002CD3 8903                    mov [EBX],EAX
  3314                                 
  3315 00002CD5 66A1[00000000]          mov AX,[RU]
  3316 00002CDB 6683C004                add AX,4
  3317 00002CDF 66A3[00000000]          mov [RU],AX
  3318                                 
  3319 00002CE5 98                      cwde
  3320 00002CE6 05[00000000]            add EAX,list
  3321 00002CEB 89C3                    mov EBX,EAX
  3322 00002CED 66A1[02000000]          mov AX,[RX+2]
  3323 00002CF3 66C1E002                sal AX,2
  3324 00002CF7 660B05[04000000]        or AX,[RX+4]
  3325 00002CFE C1E010                  sal EAX,16
  3326 00002D01 66A1[00000000]          mov AX,[RX]
  3327 00002D07 8903                    mov [EBX],EAX
  3328                                 
  3329 00002D09 66A1[00000000]          mov AX,[RB]
  3330 00002D0F 98                      cwde
  3331 00002D10 05[00000000]            add EAX,progr
  3332 00002D15 FFE0                    jmp EAX
  3333                                 
  3334                                 
  3335                                 L49:
  3336                                 
  3337 00002D17 66A1[04000000]          mov AX,[RY+4]
  3338 00002D1D 6683F801                cmp AX,1
  3339 00002D21 0F8428F8FFFF            jz L44
  3340                                 
  3341 00002D27 66A1[00000000]          mov AX,[RR]
  3342 00002D2D 6683C004                add AX,4
  3343 00002D31 66A3[00000000]          mov [RR],AX
  3344                                 
  3345 00002D37 98                      cwde
  3346 00002D38 05[00000000]            add EAX,list
  3347 00002D3D 89C3                    mov EBX,EAX
  3348 00002D3F 668B03                  mov AX,[EBX]
  3349 00002D42 66A3[00000000]          mov [RY],AX
  3350 00002D48 668B4302                mov AX,[EBX+2]
  3351 00002D4C 6689C2                  mov DX,AX
  3352 00002D4F 6683E203                and DX,3
  3353 00002D53 668915[04000000]        mov [RY+4],DX
  3354 00002D5A 66C1F802                sar AX,2
  3355 00002D5E 66A3[02000000]          mov [RY+2],AX
  3356                                 
  3357 00002D64 66A1[00000000]          mov AX,[RR]
  3358 00002D6A 6683C004                add AX,4
  3359 00002D6E 66A3[00000000]          mov [RR],AX
  3360                                 
  3361 00002D74 98                      cwde
  3362 00002D75 05[00000000]            add EAX,list
  3363 00002D7A 89C3                    mov EBX,EAX
  3364 00002D7C 668B03                  mov AX,[EBX]
  3365 00002D7F 66A3[00000000]          mov [RW],AX
  3366 00002D85 668B4302                mov AX,[EBX+2]
  3367 00002D89 6689C2                  mov DX,AX
  3368 00002D8C 6683E203                and DX,3
  3369 00002D90 668915[04000000]        mov [RW+4],DX
  3370 00002D97 66C1F802                sar AX,2
  3371 00002D9B 66A3[02000000]          mov [RW+2],AX
  3372                                 
  3373 00002DA1 66A1[00000000]          mov AX,[RW]
  3374 00002DA7 98                      cwde
  3375 00002DA8 05[00000000]            add EAX,list
  3376 00002DAD 89C3                    mov EBX,EAX
  3377 00002DAF 66A1[02000000]          mov AX,[RY+2]
  3378 00002DB5 66C1E002                sal AX,2
  3379 00002DB9 660B05[04000000]        or AX,[RY+4]
  3380 00002DC0 C1E010                  sal EAX,16
  3381 00002DC3 66A1[00000000]          mov AX,[RY]
  3382 00002DC9 8903                    mov [EBX],EAX
  3383                                 
  3384 00002DCB 66A1[00000000]          mov AX,[RR]
  3385 00002DD1 6683C004                add AX,4
  3386 00002DD5 66A3[00000000]          mov [RR],AX
  3387                                 
  3388 00002DDB 98                      cwde
  3389 00002DDC 05[00000000]            add EAX,list
  3390 00002DE1 89C3                    mov EBX,EAX
  3391 00002DE3 668B03                  mov AX,[EBX]
  3392 00002DE6 66A3[00000000]          mov [RC],AX
  3393 00002DEC 668B4302                mov AX,[EBX+2]
  3394 00002DF0 6689C2                  mov DX,AX
  3395 00002DF3 6683E203                and DX,3
  3396 00002DF7 668915[04000000]        mov [RC+4],DX
  3397 00002DFE 66C1F802                sar AX,2
  3398 00002E02 66A3[02000000]          mov [RC+2],AX
  3399                                 
  3400 00002E08 66A1[00000000]          mov AX,[RR]
  3401 00002E0E 6683C004                add AX,4
  3402 00002E12 66A3[00000000]          mov [RR],AX
  3403                                 
  3404 00002E18 98                      cwde
  3405 00002E19 05[00000000]            add EAX,list
  3406 00002E1E 89C3                    mov EBX,EAX
  3407 00002E20 668B03                  mov AX,[EBX]
  3408 00002E23 66A3[00000000]          mov [RR],AX
  3409 00002E29 668B4302                mov AX,[EBX+2]
  3410 00002E2D 6689C2                  mov DX,AX
  3411 00002E30 6683E203                and DX,3
  3412 00002E34 668915[04000000]        mov [RR+4],DX
  3413 00002E3B 66C1F802                sar AX,2
  3414 00002E3F 66A3[02000000]          mov [RR+2],AX
  3415                                 
  3416 00002E45 E984D9FFFF              jmp L05
  3417                                 
  3418                                 
  3419                                 L50:
  3420                                 
  3421 00002E4A 66B80100                mov AX,1
  3422 00002E4E 66A3[04000000]          mov [RY+4],AX
  3423                                 
  3424 00002E54 66A1[02000000]          mov AX,[RL+2]
  3425 00002E5A 66A3[02000000]          mov [RY+2],AX
  3426                                 
  3427 00002E60 66A1[00000000]          mov AX,[R8]
  3428 00002E66 6683E804                sub AX,4
  3429 00002E6A 66A3[00000000]          mov [R8],AX
  3430                                 
  3431 00002E70 E9FE010000              jmp L54
  3432                                 
  3433                                 
  3434                                 L51:
  3435                                 
  3436 00002E75 8B1D[00000000]          mov EBX,[LBR]
  3437 00002E7B 8A83[00000000]          mov AL,[LINE+EBX]
  3438 00002E81 6698                    cbw
  3439 00002E83 43                      inc EBX
  3440 00002E84 891D[00000000]          mov [LBR],EBX
  3441 00002E8A 66A3[02000000]          mov [RI+2],AX
  3442                                 
  3443 00002E90 66A1[00000000]          mov AX,[R8]
  3444 00002E96 98                      cwde
  3445 00002E97 05[00000000]            add EAX,list
  3446 00002E9C 89C3                    mov EBX,EAX
  3447 00002E9E 66A1[02000000]          mov AX,[RI+2]
  3448 00002EA4 66C1E002                sal AX,2
  3449 00002EA8 660B05[04000000]        or AX,[RI+4]
  3450 00002EAF C1E010                  sal EAX,16
  3451 00002EB2 66A1[00000000]          mov AX,[RI]
  3452 00002EB8 8903                    mov [EBX],EAX
  3453                                 
  3454 00002EBA 66A1[02000000]          mov AX,[RI+2]
  3455 00002EC0 663B05[02000000]        cmp AX,[RC+2]
  3456 00002EC7 0F84D8000000            jz L52
  3457                                 
  3458 00002ECD 663B05[02000000]        cmp AX,[RD+2]
  3459 00002ED4 0F84CB000000            jz L52
  3460                                 
  3461 00002EDA 662B05[02000000]        sub AX,[RE+2]
  3462 00002EE1 66A3[02000000]          mov [RI+2],AX
  3463                                 
  3464 00002EE7 66B80300                mov AX,3
  3465 00002EEB 66A3[04000000]          mov [RZ+4],AX
  3466                                 
  3467 00002EF1 8B1D[00000000]          mov EBX,[LBR]
  3468 00002EF7 8A83[00000000]          mov AL,[LINE+EBX]
  3469 00002EFD 6698                    cbw
  3470 00002EFF 43                      inc EBX
  3471 00002F00 891D[00000000]          mov [LBR],EBX
  3472 00002F06 66A3[02000000]          mov [RZ+2],AX
  3473                                 
  3474 00002F0C 662B05[02000000]        sub AX,[RE+2]
  3475 00002F13 66A3[02000000]          mov [RZ+2],AX
  3476                                 
  3477 00002F19 66A1[02000000]          mov AX,[RI+2]
  3478 00002F1F 66A3[00000000]          mov [RZ],AX
  3479                                 
  3480 00002F25 66A1[00000000]          mov AX,[R8]
  3481 00002F2B 98                      cwde
  3482 00002F2C 05[00000000]            add EAX,list
  3483 00002F31 89C3                    mov EBX,EAX
  3484 00002F33 66A1[02000000]          mov AX,[RZ+2]
  3485 00002F39 66C1E002                sal AX,2
  3486 00002F3D 660B05[04000000]        or AX,[RZ+4]
  3487 00002F44 C1E010                  sal EAX,16
  3488 00002F47 66A1[00000000]          mov AX,[RZ]
  3489 00002F4D 8903                    mov [EBX],EAX
  3490                                 
  3491 00002F4F 6631C0                  xor AX,AX
  3492 00002F52 663B05[00000000]        cmp AX,[RZ]
  3493 00002F59 7D4E                    jge L52
  3494                                 
  3495 00002F5B 66A1[00000000]          mov AX,[RZ]
  3496 00002F61 6683F80A                cmp AX,10
  3497 00002F65 7D42                    jge L52
  3498                                 
  3499 00002F67 66B80200                mov AX,2
  3500 00002F6B 66A3[04000000]          mov [RZ+4],AX
  3501                                 
  3502 00002F71 66A1[00000000]          mov AX,[RZ]
  3503 00002F77 66C1E002                sal AX,2
  3504 00002F7B 66A3[00000000]          mov [RZ],AX
  3505                                 
  3506 00002F81 66A1[00000000]          mov AX,[R8]
  3507 00002F87 98                      cwde
  3508 00002F88 05[00000000]            add EAX,list
  3509 00002F8D 89C3                    mov EBX,EAX
  3510 00002F8F 66A1[02000000]          mov AX,[RZ+2]
  3511 00002F95 66C1E002                sal AX,2
  3512 00002F99 660B05[04000000]        or AX,[RZ+4]
  3513 00002FA0 C1E010                  sal EAX,16
  3514 00002FA3 66A1[00000000]          mov AX,[RZ]
  3515 00002FA9 8903                    mov [EBX],EAX
  3516                                 
  3517                                 
  3518                                 L52:
  3519                                 
  3520 00002FAB 66A1[00000000]          mov AX,[R8]
  3521 00002FB1 6683C004                add AX,4
  3522 00002FB5 66A3[00000000]          mov [R8],AX
  3523                                 
  3524 00002FBB 663B05[00000000]        cmp AX,[R9]
  3525 00002FC2 0F8D19130000            jge L97
  3526                                 
  3527 00002FC8 8B1D[00000000]          mov EBX,[LBR]
  3528 00002FCE 8A83[00000000]          mov AL,[LINE+EBX]
  3529 00002FD4 6698                    cbw
  3530 00002FD6 43                      inc EBX
  3531 00002FD7 891D[00000000]          mov [LBR],EBX
  3532 00002FDD 66A3[02000000]          mov [RI+2],AX
  3533                                 
  3534 00002FE3 66A1[00000000]          mov AX,[R8]
  3535 00002FE9 98                      cwde
  3536 00002FEA 05[00000000]            add EAX,list
  3537 00002FEF 89C3                    mov EBX,EAX
  3538 00002FF1 66A1[02000000]          mov AX,[RI+2]
  3539 00002FF7 66C1E002                sal AX,2
  3540 00002FFB 660B05[04000000]        or AX,[RI+4]
  3541 00003002 C1E010                  sal EAX,16
  3542 00003005 66A1[00000000]          mov AX,[RI]
  3543 0000300B 8903                    mov [EBX],EAX
  3544                                 
  3545 0000300D 66A1[02000000]          mov AX,[RI+2]
  3546 00003013 663B05[02000000]        cmp AX,[RD+2]
  3547 0000301A 0F844FFEFFFF            jz L51
  3548                                 
  3549 00003020 663B05[02000000]        cmp AX,[RL+2]
  3550 00003027 740B                    jz L53
  3551                                 
  3552 00003029 663B05[02000000]        cmp AX,[RC+2]
  3553 00003030 0F856FFFFFFF            jnz L52
  3554                                 
  3555                                 
  3556                                 L53:
  3557                                 
  3558 00003036 66A1[00000000]          mov AX,[R8]
  3559 0000303C 66A3[00000000]          mov [RY],AX
  3560                                 
  3561 00003042 66A1[00000000]          mov AX,[RU]
  3562 00003048 98                      cwde
  3563 00003049 05[00000000]            add EAX,list
  3564 0000304E 89C3                    mov EBX,EAX
  3565 00003050 66A1[02000000]          mov AX,[RY+2]
  3566 00003056 66C1E002                sal AX,2
  3567 0000305A 660B05[04000000]        or AX,[RY+4]
  3568 00003061 C1E010                  sal EAX,16
  3569 00003064 66A1[00000000]          mov AX,[RY]
  3570 0000306A 8903                    mov [EBX],EAX
  3571                                 
  3572 0000306C 66A1[00000000]          mov AX,[R8]
  3573 00003072 66A3[00000000]          mov [RU],AX
  3574                                 
  3575                                 
  3576                                 L54:
  3577                                 
  3578 00003078 66A1[00000000]          mov AX,[RA]
  3579 0000307E 98                      cwde
  3580 0000307F 05[00000000]            add EAX,list
  3581 00003084 89C3                    mov EBX,EAX
  3582 00003086 668B03                  mov AX,[EBX]
  3583 00003089 66A3[00000000]          mov [RI],AX
  3584 0000308F 668B4302                mov AX,[EBX+2]
  3585 00003093 6689C2                  mov DX,AX
  3586 00003096 6683E203                and DX,3
  3587 0000309A 668915[04000000]        mov [RI+4],DX
  3588 000030A1 66C1F802                sar AX,2
  3589 000030A5 66A3[02000000]          mov [RI+2],AX
  3590                                 
  3591 000030AB 98                      cwde
  3592 000030AC 890424                  mov [ESP],EAX
  3593 000030AF E8(F6FFFFFF)            call iread
  3594 000030B4 66A3[04000000]          mov [RI+4],AX
  3595                                 
  3596 000030BA 6609C0                  or AX,AX
  3597 000030BD 0F855F120000            jnz L98
  3598                                 
  3599 000030C3 8B1D[00000000]          mov EBX,[LBR]
  3600 000030C9 8A83[00000000]          mov AL,[LINE+EBX]
  3601 000030CF 6698                    cbw
  3602 000030D1 43                      inc EBX
  3603 000030D2 891D[00000000]          mov [LBR],EBX
  3604 000030D8 66A3[02000000]          mov [RI+2],AX
  3605                                 
  3606 000030DE 6631C0                  xor AX,AX
  3607 000030E1 66A3[00000000]          mov [RI],AX
  3608                                 
  3609 000030E7 66A1[00000000]          mov AX,[R8]
  3610 000030ED 6683C004                add AX,4
  3611 000030F1 66A3[00000000]          mov [R8],AX
  3612                                 
  3613 000030F7 98                      cwde
  3614 000030F8 05[00000000]            add EAX,list
  3615 000030FD 89C3                    mov EBX,EAX
  3616 000030FF 66A1[02000000]          mov AX,[RI+2]
  3617 00003105 66C1E002                sal AX,2
  3618 00003109 660B05[04000000]        or AX,[RI+4]
  3619 00003110 C1E010                  sal EAX,16
  3620 00003113 66A1[00000000]          mov AX,[RI]
  3621 00003119 8903                    mov [EBX],EAX
  3622                                 
  3623 0000311B 66A1[02000000]          mov AX,[RI+2]
  3624 00003121 663B05[02000000]        cmp AX,[RD+2]
  3625 00003128 0F8441FDFFFF            jz L51
  3626                                 
  3627 0000312E 663B05[02000000]        cmp AX,[RC+2]
  3628 00003135 0F856AFEFFFF            jnz L52
  3629                                 
  3630 0000313B 66A1[00000000]          mov AX,[R8]
  3631 00003141 66A3[00000000]          mov [RY],AX
  3632                                 
  3633 00003147 66A1[00000000]          mov AX,[RU]
  3634 0000314D 98                      cwde
  3635 0000314E 05[00000000]            add EAX,list
  3636 00003153 89C3                    mov EBX,EAX
  3637 00003155 66A1[02000000]          mov AX,[RY+2]
  3638 0000315B 66C1E002                sal AX,2
  3639 0000315F 660B05[04000000]        or AX,[RY+4]
  3640 00003166 C1E010                  sal EAX,16
  3641 00003169 66A1[00000000]          mov AX,[RY]
  3642 0000316F 8903                    mov [EBX],EAX
  3643                                 
  3644 00003171 66A1[00000000]          mov AX,[R8]
  3645 00003177 98                      cwde
  3646 00003178 05[00000000]            add EAX,list
  3647 0000317D 89C3                    mov EBX,EAX
  3648 0000317F B801000500              mov EAX,0x50001
  3649 00003184 8903                    mov [EBX],EAX
  3650                                 
  3651 00003186 66A1[00000000]          mov AX,[R8]
  3652 0000318C 6683C004                add AX,4
  3653 00003190 66A3[00000000]          mov [R8],AX
  3654                                 
  3655 00003196 663B05[00000000]        cmp AX,[R9]
  3656 0000319D 0F8D3E110000            jge L97
  3657                                 
  3658 000031A3 8B1D[00000000]          mov EBX,[LBR]
  3659 000031A9 8A83[00000000]          mov AL,[LINE+EBX]
  3660 000031AF 6698                    cbw
  3661 000031B1 43                      inc EBX
  3662 000031B2 891D[00000000]          mov [LBR],EBX
  3663 000031B8 66A3[02000000]          mov [RI+2],AX
  3664                                 
  3665 000031BE 663B05[02000000]        cmp AX,[RC+2]
  3666 000031C5 7507                    jnz L55
  3667                                 
  3668 000031C7 6631C0                  xor AX,AX
  3669 000031CA 66A3[04000000]          mov [RB+4],AX
  3670                                 
  3671                                 
  3672                                 L55:
  3673                                 
  3674 000031D0 66A1[00000000]          mov AX,[RD]
  3675 000031D6 98                      cwde
  3676 000031D7 05[00000000]            add EAX,progr
  3677 000031DC FFE0                    jmp EAX
  3678                                 
  3679                                 
  3680                                 L56:
  3681                                 
  3682 000031DE 66B80300                mov AX,3
  3683 000031E2 66A3[02000000]          mov [RW+2],AX
  3684                                 
  3685 000031E8 66A1[00000000]          mov AX,[RC]
  3686 000031EE 66A3[00000000]          mov [RX],AX
  3687                                 
  3688                                 
  3689                                 L57:
  3690                                 
  3691 000031F4 66A1[00000000]          mov AX,[RX]
  3692 000031FA 98                      cwde
  3693 000031FB 05[00000000]            add EAX,list
  3694 00003200 89C3                    mov EBX,EAX
  3695 00003202 668B03                  mov AX,[EBX]
  3696 00003205 66A3[00000000]          mov [RX],AX
  3697 0000320B 668B4302                mov AX,[EBX+2]
  3698 0000320F 6689C2                  mov DX,AX
  3699 00003212 6683E203                and DX,3
  3700 00003216 668915[04000000]        mov [RX+4],DX
  3701 0000321D 66C1F802                sar AX,2
  3702 00003221 66A3[02000000]          mov [RX+2],AX
  3703                                 
  3704 00003227 98                      cwde
  3705 00003228 890424                  mov [ESP],EAX
  3706 0000322B E8(F6FFFFFF)            call iwrch
  3707 00003230 66A3[04000000]          mov [RX+4],AX
  3708                                 
  3709 00003236 6683F801                cmp AX,1
  3710 0000323A 75B6                    jnz L57
  3711                                 
  3712 0000323C 66A1[02000000]          mov AX,[RW+2]
  3713 00003242 98                      cwde
  3714 00003243 890424                  mov [ESP],EAX
  3715 00003246 E8(F6FFFFFF)            call iwrite
  3716 0000324B 66A3[04000000]          mov [RW+4],AX
  3717                                 
  3718 00003251 6609C0                  or AX,AX
  3719 00003254 0F85C8100000            jnz L98
  3720                                 
  3721 0000325A 66A1[02000000]          mov AX,[RX+2]
  3722 00003260 663B05[02000000]        cmp AX,[RL+2]
  3723 00003267 0F845DFFFFFF            jz L55
  3724                                 
  3725 0000326D 98                      cwde
  3726 0000326E 890424                  mov [ESP],EAX
  3727 00003271 E8(F6FFFFFF)            call iwrch
  3728 00003276 66A3[04000000]          mov [RX+4],AX
  3729                                 
  3730 0000327C E96EFFFFFF              jmp L57
  3731                                 
  3732                                 
  3733                                 L58:
  3734                                 
  3735 00003281 66A1[00000000]          mov AX,[RW]
  3736 00003287 660305[00000000]        add AX,[RZ]
  3737 0000328E 66A3[00000000]          mov [RZ],AX
  3738                                 
  3739 00003294 66A1[00000000]          mov AX,[RW]
  3740 0000329A 6609C0                  or AX,AX
  3741 0000329D 0F85E4000000            jnz L60
  3742                                 
  3743 000032A3 66A1[04000000]          mov AX,[RB+4]
  3744 000032A9 6683F802                cmp AX,2
  3745 000032AD 0F84FE050000            jz L71
  3746                                 
  3747                                 
  3748                                 L59:
  3749                                 
  3750 000032B3 66A1[00000000]          mov AX,[RV]
  3751 000032B9 663B05[00000000]        cmp AX,[R9]
  3752 000032C0 0F8DDD050000            jge L70
  3753                                 
  3754 000032C6 98                      cwde
  3755 000032C7 05[00000000]            add EAX,list
  3756 000032CC 89C3                    mov EBX,EAX
  3757 000032CE 668B03                  mov AX,[EBX]
  3758 000032D1 66A3[00000000]          mov [RZ],AX
  3759 000032D7 668B4302                mov AX,[EBX+2]
  3760 000032DB 6689C2                  mov DX,AX
  3761 000032DE 6683E203                and DX,3
  3762 000032E2 668915[04000000]        mov [RZ+4],DX
  3763 000032E9 66C1F802                sar AX,2
  3764 000032ED 66A3[02000000]          mov [RZ+2],AX
  3765                                 
  3766 000032F3 66A1[00000000]          mov AX,[RQ]
  3767 000032F9 98                      cwde
  3768 000032FA 05[00000000]            add EAX,list
  3769 000032FF 89C3                    mov EBX,EAX
  3770 00003301 668B03                  mov AX,[EBX]
  3771 00003304 66A3[00000000]          mov [RY],AX
  3772 0000330A 668B4302                mov AX,[EBX+2]
  3773 0000330E 6689C2                  mov DX,AX
  3774 00003311 6683E203                and DX,3
  3775 00003315 668915[04000000]        mov [RY+4],DX
  3776 0000331C 66C1F802                sar AX,2
  3777 00003320 66A3[02000000]          mov [RY+2],AX
  3778                                 
  3779 00003326 66A1[00000000]          mov AX,[RY]
  3780 0000332C 98                      cwde
  3781 0000332D 05[00000000]            add EAX,list
  3782 00003332 89C3                    mov EBX,EAX
  3783 00003334 668B03                  mov AX,[EBX]
  3784 00003337 66A3[00000000]          mov [RX],AX
  3785 0000333D 668B4302                mov AX,[EBX+2]
  3786 00003341 6689C2                  mov DX,AX
  3787 00003344 6683E203                and DX,3
  3788 00003348 668915[04000000]        mov [RX+4],DX
  3789 0000334F 66C1F802                sar AX,2
  3790 00003353 66A3[02000000]          mov [RX+2],AX
  3791                                 
  3792 00003359 66A1[04000000]          mov AX,[RZ+4]
  3793 0000335F 6683F802                cmp AX,2
  3794 00003363 0F8461020000            jz L63
  3795                                 
  3796 00003369 6683F803                cmp AX,3
  3797 0000336D 0F84F8020000            jz L64
  3798                                 
  3799 00003373 66A1[00000000]          mov AX,[RQ]
  3800 00003379 6683C004                add AX,4
  3801 0000337D 66A3[00000000]          mov [RV],AX
  3802                                 
  3803 00003383 6683C004                add AX,4
  3804 00003387 66A3[00000000]          mov [RQ],AX
  3805                                 
  3806                                 
  3807                                 L60:
  3808                                 
  3809 0000338D 66A1[00000000]          mov AX,[RZ]
  3810 00003393 98                      cwde
  3811 00003394 05[00000000]            add EAX,list
  3812 00003399 89C3                    mov EBX,EAX
  3813 0000339B 668B03                  mov AX,[EBX]
  3814 0000339E 66A3[00000000]          mov [RW],AX
  3815 000033A4 668B4302                mov AX,[EBX+2]
  3816 000033A8 6689C2                  mov DX,AX
  3817 000033AB 6683E203                and DX,3
  3818 000033AF 668915[04000000]        mov [RW+4],DX
  3819 000033B6 66C1F802                sar AX,2
  3820 000033BA 66A3[02000000]          mov [RW+2],AX
  3821                                 
  3822 000033C0 66A1[04000000]          mov AX,[RW+4]
  3823 000033C6 6683F801                cmp AX,1
  3824 000033CA 0F8487040000            jz L69
  3825                                 
  3826 000033D0 6683F802                cmp AX,2
  3827 000033D4 0F843A010000            jz L62
  3828                                 
  3829 000033DA 66A1[02000000]          mov AX,[RY+2]
  3830 000033E0 6609C0                  or AX,AX
  3831 000033E3 0F8492FEFFFF            jz L58
  3832                                 
  3833 000033E9 66A1[02000000]          mov AX,[RX+2]
  3834 000033EF 663B05[02000000]        cmp AX,[RW+2]
  3835 000033F6 0F857FFEFFFF            jnz L58
  3836                                 
  3837 000033FC 66A1[00000000]          mov AX,[RW]
  3838 00003402 6609C0                  or AX,AX
  3839 00003405 0F84AE000000            jz L61
  3840                                 
  3841 0000340B 66A1[04000000]          mov AX,[RX+4]
  3842 00003411 6683F803                cmp AX,3
  3843 00003415 0F849E000000            jz L61
  3844                                 
  3845 0000341B 66A1[04000000]          mov AX,[RB+4]
  3846 00003421 6683F802                cmp AX,2
  3847 00003425 0F848E000000            jz L61
  3848                                 
  3849 0000342B 66A1[00000000]          mov AX,[RV]
  3850 00003431 6683E804                sub AX,4
  3851 00003435 66A3[00000000]          mov [RQ],AX
  3852                                 
  3853 0000343B 6683E804                sub AX,4
  3854 0000343F 66A3[00000000]          mov [RV],AX
  3855                                 
  3856 00003445 66A1[00000000]          mov AX,[R8]
  3857 0000344B 663B05[00000000]        cmp AX,[RV]
  3858 00003452 0F8D890E0000            jge L97
  3859                                 
  3860 00003458 66A1[00000000]          mov AX,[RQ]
  3861 0000345E 98                      cwde
  3862 0000345F 05[00000000]            add EAX,list
  3863 00003464 89C3                    mov EBX,EAX
  3864 00003466 66A1[02000000]          mov AX,[RY+2]
  3865 0000346C 66C1E002                sal AX,2
  3866 00003470 660B05[04000000]        or AX,[RY+4]
  3867 00003477 C1E010                  sal EAX,16
  3868 0000347A 66A1[00000000]          mov AX,[RY]
  3869 00003480 8903                    mov [EBX],EAX
  3870                                 
  3871 00003482 66A1[00000000]          mov AX,[RW]
  3872 00003488 660305[00000000]        add AX,[RZ]
  3873 0000348F 66A3[00000000]          mov [RW],AX
  3874                                 
  3875 00003495 66A1[00000000]          mov AX,[RV]
  3876 0000349B 98                      cwde
  3877 0000349C 05[00000000]            add EAX,list
  3878 000034A1 89C3                    mov EBX,EAX
  3879 000034A3 66A1[02000000]          mov AX,[RW+2]
  3880 000034A9 66C1E002                sal AX,2
  3881 000034AD 660B05[04000000]        or AX,[RW+4]
  3882 000034B4 C1E010                  sal EAX,16
  3883 000034B7 66A1[00000000]          mov AX,[RW]
  3884 000034BD 8903                    mov [EBX],EAX
  3885                                 
  3886                                 
  3887                                 L61:
  3888                                 
  3889 000034BF 66FF0D[02000000]        dec word [RY+2]
  3890                                 
  3891 000034C6 66A1[00000000]          mov AX,[RX]
  3892 000034CC 66A3[00000000]          mov [RY],AX
  3893                                 
  3894 000034D2 66A1[00000000]          mov AX,[RX]
  3895 000034D8 98                      cwde
  3896 000034D9 05[00000000]            add EAX,list
  3897 000034DE 89C3                    mov EBX,EAX
  3898 000034E0 668B03                  mov AX,[EBX]
  3899 000034E3 66A3[00000000]          mov [RX],AX
  3900 000034E9 668B4302                mov AX,[EBX+2]
  3901 000034ED 6689C2                  mov DX,AX
  3902 000034F0 6683E203                and DX,3
  3903 000034F4 668915[04000000]        mov [RX+4],DX
  3904 000034FB 66C1F802                sar AX,2
  3905 000034FF 66A3[02000000]          mov [RX+2],AX
  3906                                 
  3907 00003505 66A1[00000000]          mov AX,[RZ]
  3908 0000350B 6683C004                add AX,4
  3909 0000350F 66A3[00000000]          mov [RZ],AX
  3910                                 
  3911 00003515 E96EFEFFFF              jmp L60
  3912                                 
  3913                                 
  3914                                 L62:
  3915                                 
  3916 0000351A 66A1[04000000]          mov AX,[RX+4]
  3917 00003520 6683F802                cmp AX,2
  3918 00003524 7497                    jz L61
  3919                                 
  3920 00003526 66A1[04000000]          mov AX,[RB+4]
  3921 0000352C 6683F802                cmp AX,2
  3922 00003530 0F8445FDFFFF            jz L58
  3923                                 
  3924 00003536 66A1[00000000]          mov AX,[RV]
  3925 0000353C 6683E804                sub AX,4
  3926 00003540 66A3[00000000]          mov [RQ],AX
  3927                                 
  3928 00003546 6683E804                sub AX,4
  3929 0000354A 66A3[00000000]          mov [RV],AX
  3930                                 
  3931 00003550 66A1[00000000]          mov AX,[R8]
  3932 00003556 663B05[00000000]        cmp AX,[RV]
  3933 0000355D 0F8D7E0D0000            jge L97
  3934                                 
  3935 00003563 66A1[00000000]          mov AX,[RQ]
  3936 00003569 98                      cwde
  3937 0000356A 05[00000000]            add EAX,list
  3938 0000356F 89C3                    mov EBX,EAX
  3939 00003571 66A1[02000000]          mov AX,[RY+2]
  3940 00003577 66C1E002                sal AX,2
  3941 0000357B 660B05[04000000]        or AX,[RY+4]
  3942 00003582 C1E010                  sal EAX,16
  3943 00003585 66A1[00000000]          mov AX,[RY]
  3944 0000358B 8903                    mov [EBX],EAX
  3945                                 
  3946 0000358D 66B80200                mov AX,2
  3947 00003591 66A3[04000000]          mov [RZ+4],AX
  3948                                 
  3949 00003597 66A1[00000000]          mov AX,[RV]
  3950 0000359D 98                      cwde
  3951 0000359E 05[00000000]            add EAX,list
  3952 000035A3 89C3                    mov EBX,EAX
  3953 000035A5 66A1[02000000]          mov AX,[RZ+2]
  3954 000035AB 66C1E002                sal AX,2
  3955 000035AF 660B05[04000000]        or AX,[RZ+4]
  3956 000035B6 C1E010                  sal EAX,16
  3957 000035B9 66A1[00000000]          mov AX,[RZ]
  3958 000035BF 8903                    mov [EBX],EAX
  3959                                 
  3960 000035C1 66B80300                mov AX,3
  3961 000035C5 66A3[04000000]          mov [RZ+4],AX
  3962                                 
  3963 000035CB E9ACFCFFFF              jmp L58
  3964                                 
  3965                                 
  3966                                 L63:
  3967                                 
  3968 000035D0 66B80300                mov AX,3
  3969 000035D4 66A3[04000000]          mov [RZ+4],AX
  3970                                 
  3971 000035DA 66A1[00000000]          mov AX,[RZ]
  3972 000035E0 6683C004                add AX,4
  3973 000035E4 66A3[00000000]          mov [RZ],AX
  3974                                 
  3975 000035EA 66A1[00000000]          mov AX,[RV]
  3976 000035F0 98                      cwde
  3977 000035F1 05[00000000]            add EAX,list
  3978 000035F6 89C3                    mov EBX,EAX
  3979 000035F8 66A1[02000000]          mov AX,[RZ+2]
  3980 000035FE 66C1E002                sal AX,2
  3981 00003602 660B05[04000000]        or AX,[RZ+4]
  3982 00003609 C1E010                  sal EAX,16
  3983 0000360C 66A1[00000000]          mov AX,[RZ]
  3984 00003612 8903                    mov [EBX],EAX
  3985                                 
  3986 00003614 66A1[00000000]          mov AX,[RU]
  3987 0000361A 6683C004                add AX,4
  3988 0000361E 66A3[00000000]          mov [RU],AX
  3989                                 
  3990 00003624 6631C0                  xor AX,AX
  3991 00003627 66A3[04000000]          mov [RW+4],AX
  3992                                 
  3993 0000362D 6631C0                  xor AX,AX
  3994 00003630 66A3[02000000]          mov [RW+2],AX
  3995                                 
  3996 00003636 66A1[00000000]          mov AX,[RY]
  3997 0000363C 66A3[00000000]          mov [RW],AX
  3998                                 
  3999 00003642 66A1[00000000]          mov AX,[RU]
  4000 00003648 98                      cwde
  4001 00003649 05[00000000]            add EAX,list
  4002 0000364E 89C3                    mov EBX,EAX
  4003 00003650 66A1[02000000]          mov AX,[RW+2]
  4004 00003656 66C1E002                sal AX,2
  4005 0000365A 660B05[04000000]        or AX,[RW+4]
  4006 00003661 C1E010                  sal EAX,16
  4007 00003664 66A1[00000000]          mov AX,[RW]
  4008 0000366A 8903                    mov [EBX],EAX
  4009                                 
  4010 0000366C E917FDFFFF              jmp L60
  4011                                 
  4012                                 
  4013                                 L64:
  4014                                 
  4015 00003671 66A1[02000000]          mov AX,[RY+2]
  4016 00003677 6609C0                  or AX,AX
  4017 0000367A 0F8493010000            jz L68
  4018                                 
  4019 00003680 66A1[02000000]          mov AX,[RX+2]
  4020 00003686 663B05[02000000]        cmp AX,[RR+2]
  4021 0000368D 0F8480010000            jz L68
  4022                                 
  4023 00003693 66A1[00000000]          mov AX,[RU]
  4024 00003699 98                      cwde
  4025 0000369A 05[00000000]            add EAX,list
  4026 0000369F 89C3                    mov EBX,EAX
  4027 000036A1 668B03                  mov AX,[EBX]
  4028 000036A4 66A3[00000000]          mov [RW],AX
  4029 000036AA 668B4302                mov AX,[EBX+2]
  4030 000036AE 6689C2                  mov DX,AX
  4031 000036B1 6683E203                and DX,3
  4032 000036B5 668915[04000000]        mov [RW+4],DX
  4033 000036BC 66C1F802                sar AX,2
  4034 000036C0 66A3[02000000]          mov [RW+2],AX
  4035                                 
  4036 000036C6 66FF05[02000000]        inc word [RW+2]
  4037                                 
  4038 000036CD 66FF0D[02000000]        dec word [RY+2]
  4039                                 
  4040 000036D4 66A1[00000000]          mov AX,[RX]
  4041 000036DA 66A3[00000000]          mov [RY],AX
  4042                                 
  4043 000036E0 66A1[02000000]          mov AX,[RX+2]
  4044 000036E6 663B05[02000000]        cmp AX,[RM+2]
  4045 000036ED 0F8594000000            jnz L67
  4046                                 
  4047 000036F3 6631C0                  xor AX,AX
  4048 000036F6 66A3[02000000]          mov [RZ+2],AX
  4049                                 
  4050                                 
  4051                                 L65:
  4052                                 
  4053 000036FC 66FF05[02000000]        inc word [RZ+2]
  4054                                 
  4055                                 
  4056                                 L66:
  4057                                 
  4058 00003703 66A1[02000000]          mov AX,[RY+2]
  4059 00003709 6609C0                  or AX,AX
  4060 0000370C 0F8401010000            jz L68
  4061                                 
  4062 00003712 66A1[00000000]          mov AX,[RX]
  4063 00003718 98                      cwde
  4064 00003719 05[00000000]            add EAX,list
  4065 0000371E 89C3                    mov EBX,EAX
  4066 00003720 668B03                  mov AX,[EBX]
  4067 00003723 66A3[00000000]          mov [RX],AX
  4068 00003729 668B4302                mov AX,[EBX+2]
  4069 0000372D 6689C2                  mov DX,AX
  4070 00003730 6683E203                and DX,3
  4071 00003734 668915[04000000]        mov [RX+4],DX
  4072 0000373B 66C1F802                sar AX,2
  4073 0000373F 66A3[02000000]          mov [RX+2],AX
  4074                                 
  4075 00003745 66FF0D[02000000]        dec word [RY+2]
  4076                                 
  4077 0000374C 66A1[00000000]          mov AX,[RX]
  4078 00003752 66A3[00000000]          mov [RY],AX
  4079                                 
  4080 00003758 66FF05[02000000]        inc word [RW+2]
  4081                                 
  4082 0000375F 66A1[02000000]          mov AX,[RX+2]
  4083 00003765 663B05[02000000]        cmp AX,[RM+2]
  4084 0000376C 748C                    jz L65
  4085                                 
  4086 0000376E 663B05[02000000]        cmp AX,[RR+2]
  4087 00003775 758A                    jnz L66
  4088                                 
  4089 00003777 66FF0D[02000000]        dec word [RZ+2]
  4090                                 
  4091 0000377E 66A1[02000000]          mov AX,[RZ+2]
  4092 00003784 6609C0                  or AX,AX
  4093 00003787 0F8570FFFFFF            jnz L66
  4094                                 
  4095                                 
  4096                                 L67:
  4097                                 
  4098 0000378D 66A1[00000000]          mov AX,[RX]
  4099 00003793 98                      cwde
  4100 00003794 05[00000000]            add EAX,list
  4101 00003799 89C3                    mov EBX,EAX
  4102 0000379B 668B03                  mov AX,[EBX]
  4103 0000379E 66A3[00000000]          mov [RX],AX
  4104 000037A4 668B4302                mov AX,[EBX+2]
  4105 000037A8 6689C2                  mov DX,AX
  4106 000037AB 6683E203                and DX,3
  4107 000037AF 668915[04000000]        mov [RX+4],DX
  4108 000037B6 66C1F802                sar AX,2
  4109 000037BA 66A3[02000000]          mov [RX+2],AX
  4110                                 
  4111 000037C0 66A1[00000000]          mov AX,[RQ]
  4112 000037C6 98                      cwde
  4113 000037C7 05[00000000]            add EAX,list
  4114 000037CC 89C3                    mov EBX,EAX
  4115 000037CE 66A1[02000000]          mov AX,[RY+2]
  4116 000037D4 66C1E002                sal AX,2
  4117 000037D8 660B05[04000000]        or AX,[RY+4]
  4118 000037DF C1E010                  sal EAX,16
  4119 000037E2 66A1[00000000]          mov AX,[RY]
  4120 000037E8 8903                    mov [EBX],EAX
  4121                                 
  4122 000037EA 66A1[00000000]          mov AX,[RU]
  4123 000037F0 98                      cwde
  4124 000037F1 05[00000000]            add EAX,list
  4125 000037F6 89C3                    mov EBX,EAX
  4126 000037F8 66A1[02000000]          mov AX,[RW+2]
  4127 000037FE 66C1E002                sal AX,2
  4128 00003802 660B05[04000000]        or AX,[RW+4]
  4129 00003809 C1E010                  sal EAX,16
  4130 0000380C 66A1[00000000]          mov AX,[RW]
  4131 00003812 8903                    mov [EBX],EAX
  4132                                 
  4133 00003814 E96FFBFFFF              jmp L60
  4134                                 
  4135                                 
  4136                                 L68:
  4137                                 
  4138 00003819 66A1[00000000]          mov AX,[RU]
  4139 0000381F 98                      cwde
  4140 00003820 05[00000000]            add EAX,list
  4141 00003825 89C3                    mov EBX,EAX
  4142 00003827 B803000F00              mov EAX,0xF0003
  4143 0000382C 8903                    mov [EBX],EAX
  4144                                 
  4145 0000382E 66A1[00000000]          mov AX,[RU]
  4146 00003834 6683E804                sub AX,4
  4147 00003838 66A3[00000000]          mov [RU],AX
  4148                                 
  4149 0000383E 66A1[00000000]          mov AX,[RQ]
  4150 00003844 6683C004                add AX,4
  4151 00003848 66A3[00000000]          mov [RV],AX
  4152                                 
  4153 0000384E 6683C004                add AX,4
  4154 00003852 66A3[00000000]          mov [RQ],AX
  4155                                 
  4156 00003858 E951FAFFFF              jmp L59
  4157                                 
  4158                                 
  4159                                 L69:
  4160                                 
  4161 0000385D 66A1[02000000]          mov AX,[RY+2]
  4162 00003863 6609C0                  or AX,AX
  4163 00003866 0F850FFAFFFF            jnz L58
  4164                                 
  4165 0000386C 66A1[00000000]          mov AX,[RZ]
  4166 00003872 6683C004                add AX,4
  4167 00003876 66A3[00000000]          mov [RU],AX
  4168                                 
  4169 0000387C 98                      cwde
  4170 0000387D 05[00000000]            add EAX,list
  4171 00003882 89C3                    mov EBX,EAX
  4172 00003884 668B03                  mov AX,[EBX]
  4173 00003887 66A3[00000000]          mov [RY],AX
  4174 0000388D 668B4302                mov AX,[EBX+2]
  4175 00003891 6689C2                  mov DX,AX
  4176 00003894 6683E203                and DX,3
  4177 00003898 668915[04000000]        mov [RY+4],DX
  4178 0000389F 66C1F802                sar AX,2
  4179 000038A3 66A3[02000000]          mov [RY+2],AX
  4180                                 
  4181                                 
  4182                                 L70:
  4183                                 
  4184 000038A9 66A1[00000000]          mov AX,[RB]
  4185 000038AF 98                      cwde
  4186 000038B0 05[00000000]            add EAX,progr
  4187 000038B5 FFE0                    jmp EAX
  4188                                 
  4189                                 
  4190                                 L71:
  4191                                 
  4192 000038B7 66A1[00000000]          mov AX,[R8]
  4193 000038BD 662B05[00000000]        sub AX,[RZ]
  4194 000038C4 66A3[00000000]          mov [RW],AX
  4195                                 
  4196 000038CA 66A1[00000000]          mov AX,[RZ]
  4197 000038D0 98                      cwde
  4198 000038D1 05[00000000]            add EAX,list
  4199 000038D6 89C3                    mov EBX,EAX
  4200 000038D8 66A1[02000000]          mov AX,[RW+2]
  4201 000038DE 66C1E002                sal AX,2
  4202 000038E2 660B05[04000000]        or AX,[RW+4]
  4203 000038E9 C1E010                  sal EAX,16
  4204 000038EC 66A1[00000000]          mov AX,[RW]
  4205 000038F2 8903                    mov [EBX],EAX
  4206                                 
  4207 000038F4 66A1[02000000]          mov AX,[RY+2]
  4208 000038FA 6609C0                  or AX,AX
  4209 000038FD 0F849F000000            jz L73
  4210                                 
  4211                                 
  4212                                 L72:
  4213                                 
  4214 00003903 66FF0D[02000000]        dec word [RY+2]
  4215                                 
  4216 0000390A 66A1[00000000]          mov AX,[RX]
  4217 00003910 66A3[00000000]          mov [RY],AX
  4218                                 
  4219 00003916 6631C0                  xor AX,AX
  4220 00003919 66A3[00000000]          mov [RX],AX
  4221                                 
  4222 0000391F 66A1[00000000]          mov AX,[R8]
  4223 00003925 98                      cwde
  4224 00003926 05[00000000]            add EAX,list
  4225 0000392B 89C3                    mov EBX,EAX
  4226 0000392D 66A1[02000000]          mov AX,[RX+2]
  4227 00003933 66C1E002                sal AX,2
  4228 00003937 660B05[04000000]        or AX,[RX+4]
  4229 0000393E C1E010                  sal EAX,16
  4230 00003941 66A1[00000000]          mov AX,[RX]
  4231 00003947 8903                    mov [EBX],EAX
  4232                                 
  4233 00003949 66A1[00000000]          mov AX,[R8]
  4234 0000394F 6683C004                add AX,4
  4235 00003953 66A3[00000000]          mov [R8],AX
  4236                                 
  4237 00003959 663B05[00000000]        cmp AX,[R9]
  4238 00003960 0F8D7B090000            jge L97
  4239                                 
  4240 00003966 66A1[00000000]          mov AX,[RY]
  4241 0000396C 98                      cwde
  4242 0000396D 05[00000000]            add EAX,list
  4243 00003972 89C3                    mov EBX,EAX
  4244 00003974 668B03                  mov AX,[EBX]
  4245 00003977 66A3[00000000]          mov [RX],AX
  4246 0000397D 668B4302                mov AX,[EBX+2]
  4247 00003981 6689C2                  mov DX,AX
  4248 00003984 6683E203                and DX,3
  4249 00003988 668915[04000000]        mov [RX+4],DX
  4250 0000398F 66C1F802                sar AX,2
  4251 00003993 66A3[02000000]          mov [RX+2],AX
  4252                                 
  4253 00003999 66A1[02000000]          mov AX,[RY+2]
  4254 0000399F 6609C0                  or AX,AX
  4255 000039A2 0F8555FFFFFF            jnz L72
  4256                                 
  4257                                 
  4258                                 L73:
  4259                                 
  4260 000039A8 66B80100                mov AX,1
  4261 000039AC 66A3[04000000]          mov [RX+4],AX
  4262                                 
  4263 000039B2 6631C0                  xor AX,AX
  4264 000039B5 66A3[00000000]          mov [RX],AX
  4265                                 
  4266 000039BB 66A1[00000000]          mov AX,[R8]
  4267 000039C1 98                      cwde
  4268 000039C2 05[00000000]            add EAX,list
  4269 000039C7 89C3                    mov EBX,EAX
  4270 000039C9 66A1[02000000]          mov AX,[RX+2]
  4271 000039CF 66C1E002                sal AX,2
  4272 000039D3 660B05[04000000]        or AX,[RX+4]
  4273 000039DA C1E010                  sal EAX,16
  4274 000039DD 66A1[00000000]          mov AX,[RX]
  4275 000039E3 8903                    mov [EBX],EAX
  4276                                 
  4277 000039E5 66A1[00000000]          mov AX,[R8]
  4278 000039EB 6683C004                add AX,4
  4279 000039EF 66A3[00000000]          mov [RU],AX
  4280                                 
  4281 000039F5 6631C0                  xor AX,AX
  4282 000039F8 66A3[04000000]          mov [RY+4],AX
  4283                                 
  4284 000039FE 66A1[00000000]          mov AX,[RU]
  4285 00003A04 66A3[00000000]          mov [RY],AX
  4286                                 
  4287 00003A0A 66A1[00000000]          mov AX,[RU]
  4288 00003A10 98                      cwde
  4289 00003A11 05[00000000]            add EAX,list
  4290 00003A16 89C3                    mov EBX,EAX
  4291 00003A18 66A1[02000000]          mov AX,[RY+2]
  4292 00003A1E 66C1E002                sal AX,2
  4293 00003A22 660B05[04000000]        or AX,[RY+4]
  4294 00003A29 C1E010                  sal EAX,16
  4295 00003A2C 66A1[00000000]          mov AX,[RY]
  4296 00003A32 8903                    mov [EBX],EAX
  4297                                 
  4298 00003A34 66A1[00000000]          mov AX,[RU]
  4299 00003A3A 6683C004                add AX,4
  4300 00003A3E 66A3[00000000]          mov [R8],AX
  4301                                 
  4302 00003A44 663B05[00000000]        cmp AX,[R9]
  4303 00003A4B 0F8D90080000            jge L97
  4304                                 
  4305 00003A51 66A1[00000000]          mov AX,[RB]
  4306 00003A57 98                      cwde
  4307 00003A58 05[00000000]            add EAX,progr
  4308 00003A5D FFE0                    jmp EAX
  4309                                 
  4310                                 
  4311                                 L74:
  4312                                 
  4313 00003A5F 66A1[00000000]          mov AX,[R9]
  4314 00003A65 66A3[00000000]          mov [RO],AX
  4315                                 
  4316 00003A6B 66A1[02000000]          mov AX,[RY+2]
  4317 00003A71 66A3[02000000]          mov [RS+2],AX
  4318                                 
  4319 00003A77 66A1[00000000]          mov AX,[RY]
  4320 00003A7D 66A3[00000000]          mov [RS],AX
  4321                                 
  4322 00003A83 6631C0                  xor AX,AX
  4323 00003A86 66A3[00000000]          mov [RT],AX
  4324                                 
  4325 00003A8C 66A1[02000000]          mov AX,[RY+2]
  4326 00003A92 6609C0                  or AX,AX
  4327 00003A95 7515                    jnz L75
  4328                                 
  4329 00003A97 6631C0                  xor AX,AX
  4330 00003A9A 66A3[00000000]          mov [RN],AX
  4331                                 
  4332 00003AA0 66A1[00000000]          mov AX,[RP]
  4333 00003AA6 98                      cwde
  4334 00003AA7 05[00000000]            add EAX,progr
  4335 00003AAC FFE0                    jmp EAX
  4336                                 
  4337                                 
  4338                                 L75:
  4339                                 
  4340 00003AAE 66A1[02000000]          mov AX,[RM+2]
  4341 00003AB4 66A3[02000000]          mov [RT+2],AX
  4342                                 
  4343                                 
  4344                                 L76:
  4345                                 
  4346 00003ABA 66A1[02000000]          mov AX,[RS+2]
  4347 00003AC0 6609C0                  or AX,AX
  4348 00003AC3 0F845E060000            jz L93
  4349                                 
  4350 00003AC9 66A1[00000000]          mov AX,[RS]
  4351 00003ACF 98                      cwde
  4352 00003AD0 05[00000000]            add EAX,list
  4353 00003AD5 89C3                    mov EBX,EAX
  4354 00003AD7 668B03                  mov AX,[EBX]
  4355 00003ADA 66A3[00000000]          mov [RX],AX
  4356 00003AE0 668B4302                mov AX,[EBX+2]
  4357 00003AE4 6689C2                  mov DX,AX
  4358 00003AE7 6683E203                and DX,3
  4359 00003AEB 668915[04000000]        mov [RX+4],DX
  4360 00003AF2 66C1F802                sar AX,2
  4361 00003AF6 66A3[02000000]          mov [RX+2],AX
  4362                                 
  4363 00003AFC 66A1[00000000]          mov AX,[RS]
  4364 00003B02 66A3[00000000]          mov [RY],AX
  4365                                 
  4366 00003B08 6631C0                  xor AX,AX
  4367 00003B0B 66A3[02000000]          mov [RY+2],AX
  4368                                 
  4369 00003B11 66A1[02000000]          mov AX,[RX+2]
  4370 00003B17 663B05[02000000]        cmp AX,[RM+2]
  4371 00003B1E 7563                    jnz L77
  4372                                 
  4373 00003B20 66A1[00000000]          mov AX,[R9]
  4374 00003B26 98                      cwde
  4375 00003B27 05[00000000]            add EAX,list
  4376 00003B2C 89C3                    mov EBX,EAX
  4377 00003B2E 66A1[02000000]          mov AX,[RT+2]
  4378 00003B34 66C1E002                sal AX,2
  4379 00003B38 660B05[04000000]        or AX,[RT+4]
  4380 00003B3F C1E010                  sal EAX,16
  4381 00003B42 66A1[00000000]          mov AX,[RT]
  4382 00003B48 8903                    mov [EBX],EAX
  4383                                 
  4384 00003B4A 66A1[00000000]          mov AX,[R9]
  4385 00003B50 6683E804                sub AX,4
  4386 00003B54 66A3[00000000]          mov [R9],AX
  4387                                 
  4388 00003B5A 66A1[00000000]          mov AX,[R8]
  4389 00003B60 663B05[00000000]        cmp AX,[R9]
  4390 00003B67 0F8D74070000            jge L97
  4391                                 
  4392 00003B6D 66FF0D[02000000]        dec word [RS+2]
  4393                                 
  4394 00003B74 66A1[00000000]          mov AX,[RX]
  4395 00003B7A 66A3[00000000]          mov [RS],AX
  4396                                 
  4397 00003B80 E924FFFFFF              jmp L75
  4398                                 
  4399                                 
  4400                                 L77:
  4401                                 
  4402 00003B85 66A1[02000000]          mov AX,[RX+2]
  4403 00003B8B 663B05[02000000]        cmp AX,[RN+2]
  4404 00003B92 0F847A000000            jz L78
  4405                                 
  4406 00003B98 663B05[02000000]        cmp AX,[RO+2]
  4407 00003B9F 7475                    jz L78
  4408                                 
  4409 00003BA1 663B05[02000000]        cmp AX,[RP+2]
  4410 00003BA8 746C                    jz L78
  4411                                 
  4412 00003BAA 663B05[02000000]        cmp AX,[RQ+2]
  4413 00003BB1 7463                    jz L78
  4414                                 
  4415 00003BB3 663B05[02000000]        cmp AX,[RR+2]
  4416 00003BBA 745A                    jz L78
  4417                                 
  4418 00003BBC 66FF05[02000000]        inc word [RY+2]
  4419                                 
  4420 00003BC3 66A1[00000000]          mov AX,[RX]
  4421 00003BC9 98                      cwde
  4422 00003BCA 05[00000000]            add EAX,list
  4423 00003BCF 89C3                    mov EBX,EAX
  4424 00003BD1 668B03                  mov AX,[EBX]
  4425 00003BD4 66A3[00000000]          mov [RX],AX
  4426 00003BDA 668B4302                mov AX,[EBX+2]
  4427 00003BDE 6689C2                  mov DX,AX
  4428 00003BE1 6683E203                and DX,3
  4429 00003BE5 668915[04000000]        mov [RX+4],DX
  4430 00003BEC 66C1F802                sar AX,2
  4431 00003BF0 66A3[02000000]          mov [RX+2],AX
  4432                                 
  4433 00003BF6 66A1[02000000]          mov AX,[RS+2]
  4434 00003BFC 663B05[02000000]        cmp AX,[RY+2]
  4435 00003C03 757E                    jnz L77
  4436                                 
  4437 00003C05 66A1[02000000]          mov AX,[RR+2]
  4438 00003C0B 66A3[02000000]          mov [RX+2],AX
  4439                                 
  4440 00003C11 66FF05[02000000]        inc word [RS+2]
  4441                                 
  4442                                 
  4443                                 L78:
  4444                                 
  4445 00003C18 66A1[02000000]          mov AX,[RX+2]
  4446 00003C1E 66A3[02000000]          mov [RJ+2],AX
  4447                                 
  4448 00003C24 6631C0                  xor AX,AX
  4449 00003C27 66A3[00000000]          mov [RN],AX
  4450                                 
  4451 00003C2D 66A1[02000000]          mov AX,[RS+2]
  4452 00003C33 662B05[02000000]        sub AX,[RY+2]
  4453 00003C3A 66A3[02000000]          mov [RS+2],AX
  4454                                 
  4455 00003C40 66FF0D[02000000]        dec word [RS+2]
  4456                                 
  4457 00003C47 66A1[00000000]          mov AX,[RX]
  4458 00003C4D 66A3[00000000]          mov [RS],AX
  4459                                 
  4460 00003C53 66A1[02000000]          mov AX,[RY+2]
  4461 00003C59 6609C0                  or AX,AX
  4462 00003C5C 0F84FF010000            jz L83
  4463                                 
  4464 00003C62 66A1[00000000]          mov AX,[RY]
  4465 00003C68 98                      cwde
  4466 00003C69 05[00000000]            add EAX,list
  4467 00003C6E 89C3                    mov EBX,EAX
  4468 00003C70 668B03                  mov AX,[EBX]
  4469 00003C73 66A3[00000000]          mov [RX],AX
  4470 00003C79 668B4302                mov AX,[EBX+2]
  4471 00003C7D 6689C2                  mov DX,AX
  4472 00003C80 6683E203                and DX,3
  4473 00003C84 668915[04000000]        mov [RX+4],DX
  4474 00003C8B 66C1F802                sar AX,2
  4475 00003C8F 66A3[02000000]          mov [RX+2],AX
  4476                                 
  4477 00003C95 66A3[00000000]          mov [RU],AX
  4478                                 
  4479 00003C9B 662B05[00000000]        sub AX,[RE]
  4480 00003CA2 66A3[00000000]          mov [RU],AX
  4481                                 
  4482 00003CA8 6683F80A                cmp AX,10
  4483 00003CAC 7D07                    jge L79
  4484                                 
  4485 00003CAE 6609C0                  or AX,AX
  4486 00003CB1 0F8D50010000            jge L81
  4487                                 
  4488                                 
  4489                                 L79:
  4490                                 
  4491 00003CB7 66A1[00000000]          mov AX,[R9]
  4492 00003CBD 6683C004                add AX,4
  4493 00003CC1 66A3[00000000]          mov [RV],AX
  4494                                 
  4495 00003CC7 66A1[00000000]          mov AX,[RF]
  4496 00003CCD 98                      cwde
  4497 00003CCE 05[00000000]            add EAX,list
  4498 00003CD3 89C3                    mov EBX,EAX
  4499 00003CD5 668B03                  mov AX,[EBX]
  4500 00003CD8 66A3[00000000]          mov [RW],AX
  4501 00003CDE 668B4302                mov AX,[EBX+2]
  4502 00003CE2 6689C2                  mov DX,AX
  4503 00003CE5 6683E203                and DX,3
  4504 00003CE9 668915[04000000]        mov [RW+4],DX
  4505 00003CF0 66C1F802                sar AX,2
  4506 00003CF4 66A3[02000000]          mov [RW+2],AX
  4507                                 
  4508 00003CFA 6631C0                  xor AX,AX
  4509 00003CFD 66A3[04000000]          mov [RY+4],AX
  4510                                 
  4511 00003D03 66A1[00000000]          mov AX,[RF]
  4512 00003D09 66A3[00000000]          mov [RZ],AX
  4513                                 
  4514 00003D0F B8[00000000]            mov EAX,G15
  4515 00003D14 2D[00000000]            sub EAX,progr
  4516 00003D19 66A3[00000000]          mov [RB],AX
  4517 00003D1F E958F5FFFF              jmp L58
  4518                                 G15:
  4519                                 
  4520 00003D24 66A1[04000000]          mov AX,[RY+4]
  4521 00003D2A 6683F801                cmp AX,1
  4522 00003D2E 0F852D010000            jnz L83
  4523                                 
  4524 00003D34 66A1[02000000]          mov AX,[RY+2]
  4525 00003D3A 6609C0                  or AX,AX
  4526 00003D3D 0F841E010000            jz L83
  4527                                 
  4528 00003D43 66A1[00000000]          mov AX,[RY]
  4529 00003D49 98                      cwde
  4530 00003D4A 05[00000000]            add EAX,list
  4531 00003D4F 89C3                    mov EBX,EAX
  4532 00003D51 668B03                  mov AX,[EBX]
  4533 00003D54 66A3[00000000]          mov [RX],AX
  4534 00003D5A 668B4302                mov AX,[EBX+2]
  4535 00003D5E 6689C2                  mov DX,AX
  4536 00003D61 6683E203                and DX,3
  4537 00003D65 668915[04000000]        mov [RX+4],DX
  4538 00003D6C 66C1F802                sar AX,2
  4539 00003D70 66A3[02000000]          mov [RX+2],AX
  4540                                 
  4541 00003D76 66B80100                mov AX,1
  4542 00003D7A 66A3[04000000]          mov [RN+4],AX
  4543                                 
  4544 00003D80 66A1[02000000]          mov AX,[RX+2]
  4545 00003D86 663B05[02000000]        cmp AX,[RO+2]
  4546 00003D8D 0F8494000000            jz L82
  4547                                 
  4548 00003D93 6631C0                  xor AX,AX
  4549 00003D96 66A3[04000000]          mov [RN+4],AX
  4550                                 
  4551 00003D9C 66A1[00000000]          mov AX,[RY]
  4552 00003DA2 66A3[00000000]          mov [RX],AX
  4553                                 
  4554                                 
  4555                                 L80:
  4556                                 
  4557 00003DA8 66A1[00000000]          mov AX,[RX]
  4558 00003DAE 98                      cwde
  4559 00003DAF 05[00000000]            add EAX,list
  4560 00003DB4 89C3                    mov EBX,EAX
  4561 00003DB6 668B03                  mov AX,[EBX]
  4562 00003DB9 66A3[00000000]          mov [RX],AX
  4563 00003DBF 668B4302                mov AX,[EBX+2]
  4564 00003DC3 6689C2                  mov DX,AX
  4565 00003DC6 6683E203                and DX,3
  4566 00003DCA 668915[04000000]        mov [RX+4],DX
  4567 00003DD1 66C1F802                sar AX,2
  4568 00003DD5 66A3[02000000]          mov [RX+2],AX
  4569                                 
  4570 00003DDB 66A3[00000000]          mov [RU],AX
  4571                                 
  4572 00003DE1 662B05[00000000]        sub AX,[RE]
  4573 00003DE8 66A3[00000000]          mov [RU],AX
  4574                                 
  4575 00003DEE 6609C0                  or AX,AX
  4576 00003DF1 7418                    jz L81
  4577                                 
  4578 00003DF3 6683F80A                cmp AX,10
  4579 00003DF7 0F8D2A030000            jge L93
  4580                                 
  4581 00003DFD 6631C0                  xor AX,AX
  4582 00003E00 663B05[00000000]        cmp AX,[RU]
  4583 00003E07 0F8D1A030000            jge L93
  4584                                 
  4585                                 
  4586                                 L81:
  4587                                 
  4588 00003E0D 66A1[00000000]          mov AX,[RN]
  4589 00003E13 66F72D[00000000]        imul word [R5]
  4590 00003E1A 66A3[00000000]          mov [RN],AX
  4591                                 
  4592 00003E20 660305[00000000]        add AX,[RU]
  4593 00003E27 66A3[00000000]          mov [RN],AX
  4594                                 
  4595                                 
  4596                                 L82:
  4597                                 
  4598 00003E2D 66FF0D[02000000]        dec word [RY+2]
  4599                                 
  4600 00003E34 66A1[02000000]          mov AX,[RY+2]
  4601 00003E3A 6609C0                  or AX,AX
  4602 00003E3D 0F855FFFFFFF            jnz L80
  4603                                 
  4604 00003E43 66A1[04000000]          mov AX,[RN+4]
  4605 00003E49 6609C0                  or AX,AX
  4606 00003E4C 7417                    jz L83
  4607                                 
  4608 00003E4E 6631C0                  xor AX,AX
  4609 00003E51 66A3[04000000]          mov [RN+4],AX
  4610                                 
  4611 00003E57 6631C0                  xor AX,AX
  4612 00003E5A 662B05[00000000]        sub AX,[RN]
  4613 00003E61 66A3[00000000]          mov [RN],AX
  4614                                 
  4615                                 
  4616                                 L83:
  4617                                 
  4618 00003E67 66A1[02000000]          mov AX,[RJ+2]
  4619 00003E6D 663B05[02000000]        cmp AX,[RR+2]
  4620 00003E74 0F84B6010000            jz L92
  4621                                 
  4622 00003E7A 66A1[02000000]          mov AX,[RT+2]
  4623 00003E80 663B05[02000000]        cmp AX,[RM+2]
  4624 00003E87 0F841C010000            jz L90
  4625                                 
  4626 00003E8D 66A1[02000000]          mov AX,[RJ+2]
  4627 00003E93 663B05[02000000]        cmp AX,[RP+2]
  4628 00003E9A 0F84E9000000            jz L89
  4629                                 
  4630 00003EA0 663B05[02000000]        cmp AX,[RQ+2]
  4631 00003EA7 0F84DC000000            jz L89
  4632                                 
  4633                                 
  4634                                 L84:
  4635                                 
  4636 00003EAD 66A1[02000000]          mov AX,[RT+2]
  4637 00003EB3 663B05[02000000]        cmp AX,[RQ+2]
  4638 00003EBA 744F                    jz L87
  4639                                 
  4640 00003EBC 663B05[02000000]        cmp AX,[RP+2]
  4641 00003EC3 7431                    jz L86
  4642                                 
  4643 00003EC5 663B05[02000000]        cmp AX,[RO+2]
  4644 00003ECC 7413                    jz L85
  4645                                 
  4646 00003ECE 66A1[00000000]          mov AX,[RT]
  4647 00003ED4 660305[00000000]        add AX,[RN]
  4648 00003EDB 66A3[00000000]          mov [RT],AX
  4649                                 
  4650 00003EE1 EB3D                    jmp L88
  4651                                 
  4652                                 
  4653                                 L85:
  4654                                 
  4655 00003EE3 66A1[00000000]          mov AX,[RT]
  4656 00003EE9 662B05[00000000]        sub AX,[RN]
  4657 00003EF0 66A3[00000000]          mov [RT],AX
  4658                                 
  4659 00003EF6 EB28                    jmp L88
  4660                                 
  4661                                 
  4662                                 L86:
  4663                                 
  4664 00003EF8 66A1[00000000]          mov AX,[RT]
  4665 00003EFE 66F72D[00000000]        imul word [RN]
  4666 00003F05 66A3[00000000]          mov [RT],AX
  4667                                 
  4668 00003F0B EB13                    jmp L88
  4669                                 
  4670                                 
  4671                                 L87:
  4672                                 
  4673 00003F0D 66A1[00000000]          mov AX,[RT]
  4674 00003F13 6699                    cwd
  4675 00003F15 66F73D[00000000]        idiv word [RN]
  4676 00003F1C 66A3[00000000]          mov [RT],AX
  4677                                 
  4678                                 
  4679                                 L88:
  4680                                 
  4681 00003F22 66A1[02000000]          mov AX,[RJ+2]
  4682 00003F28 66A3[02000000]          mov [RT+2],AX
  4683                                 
  4684 00003F2E 66A1[02000000]          mov AX,[RJ+2]
  4685 00003F34 663B05[02000000]        cmp AX,[RR+2]
  4686 00003F3B 0F8573FBFFFF            jnz L76
  4687                                 
  4688 00003F41 66A1[00000000]          mov AX,[RT]
  4689 00003F47 66A3[00000000]          mov [RN],AX
  4690                                 
  4691 00003F4D 66A1[00000000]          mov AX,[R9]
  4692 00003F53 6683C004                add AX,4
  4693 00003F57 66A3[00000000]          mov [R9],AX
  4694                                 
  4695 00003F5D 98                      cwde
  4696 00003F5E 05[00000000]            add EAX,list
  4697 00003F63 89C3                    mov EBX,EAX
  4698 00003F65 668B03                  mov AX,[EBX]
  4699 00003F68 66A3[00000000]          mov [RT],AX
  4700 00003F6E 668B4302                mov AX,[EBX+2]
  4701 00003F72 6689C2                  mov DX,AX
  4702 00003F75 6683E203                and DX,3
  4703 00003F79 668915[04000000]        mov [RT+4],DX
  4704 00003F80 66C1F802                sar AX,2
  4705 00003F84 66A3[02000000]          mov [RT+2],AX
  4706                                 
  4707 00003F8A E9A2000000              jmp L92
  4708                                 
  4709                                 
  4710                                 L89:
  4711                                 
  4712 00003F8F 66A1[02000000]          mov AX,[RT+2]
  4713 00003F95 663B05[02000000]        cmp AX,[RP+2]
  4714 00003F9C 0F8450FFFFFF            jz L86
  4715                                 
  4716 00003FA2 663B05[02000000]        cmp AX,[RQ+2]
  4717 00003FA9 0F8458FFFFFF            jz L87
  4718                                 
  4719                                 
  4720                                 L90:
  4721                                 
  4722 00003FAF 66A1[00000000]          mov AX,[R9]
  4723 00003FB5 98                      cwde
  4724 00003FB6 05[00000000]            add EAX,list
  4725 00003FBB 89C3                    mov EBX,EAX
  4726 00003FBD 66A1[02000000]          mov AX,[RT+2]
  4727 00003FC3 66C1E002                sal AX,2
  4728 00003FC7 660B05[04000000]        or AX,[RT+4]
  4729 00003FCE C1E010                  sal EAX,16
  4730 00003FD1 66A1[00000000]          mov AX,[RT]
  4731 00003FD7 8903                    mov [EBX],EAX
  4732                                 
  4733 00003FD9 66A1[00000000]          mov AX,[R9]
  4734 00003FDF 6683E804                sub AX,4
  4735 00003FE3 66A3[00000000]          mov [R9],AX
  4736                                 
  4737 00003FE9 66A1[00000000]          mov AX,[R8]
  4738 00003FEF 663B05[00000000]        cmp AX,[R9]
  4739 00003FF6 0F8DE5020000            jge L97
  4740                                 
  4741 00003FFC 66A1[02000000]          mov AX,[RJ+2]
  4742 00004002 66A3[02000000]          mov [RT+2],AX
  4743                                 
  4744 00004008 66A1[00000000]          mov AX,[RN]
  4745 0000400E 66A3[00000000]          mov [RT],AX
  4746                                 
  4747 00004014 E99CFAFFFF              jmp L76
  4748                                 
  4749                                 
  4750                                 L91:
  4751                                 
  4752 00004019 66A1[02000000]          mov AX,[RS+2]
  4753 0000401F 6609C0                  or AX,AX
  4754 00004022 0F85FF000000            jnz L93
  4755                                 
  4756 00004028 66A1[00000000]          mov AX,[RP]
  4757 0000402E 98                      cwde
  4758 0000402F 05[00000000]            add EAX,progr
  4759 00004034 FFE0                    jmp EAX
  4760                                 
  4761                                 
  4762                                 L92:
  4763                                 
  4764 00004036 66A1[02000000]          mov AX,[RT+2]
  4765 0000403C 663B05[02000000]        cmp AX,[RM+2]
  4766 00004043 0F855EFEFFFF            jnz L84
  4767                                 
  4768 00004049 66A1[00000000]          mov AX,[R9]
  4769 0000404F 663B05[00000000]        cmp AX,[RO]
  4770 00004056 74BF                    jz L91
  4771                                 
  4772 00004058 6683C004                add AX,4
  4773 0000405C 66A3[00000000]          mov [R9],AX
  4774                                 
  4775 00004062 98                      cwde
  4776 00004063 05[00000000]            add EAX,list
  4777 00004068 89C3                    mov EBX,EAX
  4778 0000406A 668B03                  mov AX,[EBX]
  4779 0000406D 66A3[00000000]          mov [RT],AX
  4780 00004073 668B4302                mov AX,[EBX+2]
  4781 00004077 6689C2                  mov DX,AX
  4782 0000407A 6683E203                and DX,3
  4783 0000407E 668915[04000000]        mov [RT+4],DX
  4784 00004085 66C1F802                sar AX,2
  4785 00004089 66A3[02000000]          mov [RT+2],AX
  4786                                 
  4787 0000408F 66A1[02000000]          mov AX,[RS+2]
  4788 00004095 6609C0                  or AX,AX
  4789 00004098 749A                    jz L92
  4790                                 
  4791 0000409A 66A1[00000000]          mov AX,[RS]
  4792 000040A0 98                      cwde
  4793 000040A1 05[00000000]            add EAX,list
  4794 000040A6 89C3                    mov EBX,EAX
  4795 000040A8 668B03                  mov AX,[EBX]
  4796 000040AB 66A3[00000000]          mov [RX],AX
  4797 000040B1 668B4302                mov AX,[EBX+2]
  4798 000040B5 6689C2                  mov DX,AX
  4799 000040B8 6683E203                and DX,3
  4800 000040BC 668915[04000000]        mov [RX+4],DX
  4801 000040C3 66C1F802                sar AX,2
  4802 000040C7 66A3[02000000]          mov [RX+2],AX
  4803                                 
  4804 000040CD 66FF0D[02000000]        dec word [RS+2]
  4805                                 
  4806 000040D4 66A1[00000000]          mov AX,[RX]
  4807 000040DA 66A3[00000000]          mov [RS],AX
  4808                                 
  4809 000040E0 66A1[02000000]          mov AX,[RX+2]
  4810 000040E6 66A3[02000000]          mov [RJ+2],AX
  4811                                 
  4812 000040EC 663B05[02000000]        cmp AX,[RR+2]
  4813 000040F3 0F8437FFFFFF            jz L92
  4814                                 
  4815 000040F9 663B05[02000000]        cmp AX,[RN+2]
  4816 00004100 0F845BFDFFFF            jz L83
  4817                                 
  4818 00004106 663B05[02000000]        cmp AX,[RO+2]
  4819 0000410D 0F844EFDFFFF            jz L83
  4820                                 
  4821 00004113 663B05[02000000]        cmp AX,[RP+2]
  4822 0000411A 0F8441FDFFFF            jz L83
  4823                                 
  4824 00004120 663B05[02000000]        cmp AX,[RQ+2]
  4825 00004127 0F8434FDFFFF            jz L83
  4826                                 
  4827                                 
  4828                                 L93:
  4829                                 
  4830 0000412D BB[00000000]            mov EBX,MB
  4831 00004132 C7430A45585052          mov dword [EBX+10],"EXPR"
  4832 00004139 66B80400                mov AX,4
  4833 0000413D 98                      cwde
  4834 0000413E 890424                  mov [ESP],EAX
  4835 00004141 E8(F6FFFFFF)            call iprnt
  4836 00004146 66A3[04000000]          mov [R4+4],AX
  4837                                 
  4838 0000414C 6631C0                  xor AX,AX
  4839 0000414F 66A3[00000000]          mov [RN],AX
  4840                                 
  4841 00004155 66A1[00000000]          mov AX,[RO]
  4842 0000415B 66A3[00000000]          mov [R9],AX
  4843                                 
  4844 00004161 B8[00000000]            mov EAX,G16
  4845 00004166 2D[00000000]            sub EAX,progr
  4846 0000416B 66A3[00000000]          mov [RB],AX
  4847 00004171 EB0C                    jmp L94
  4848                                 G16:
  4849                                 
  4850 00004173 66A1[00000000]          mov AX,[RP]
  4851 00004179 98                      cwde
  4852 0000417A 05[00000000]            add EAX,progr
  4853 0000417F FFE0                    jmp EAX
  4854                                 
  4855                                 
  4856                                 L94:
  4857                                 
  4858 00004181 66A1[00000000]          mov AX,[RC]
  4859 00004187 66A3[00000000]          mov [RX],AX
  4860                                 
  4861 0000418D 66A1[00000000]          mov AX,[RJ]
  4862 00004193 66A3[00000000]          mov [RY],AX
  4863                                 
  4864 00004199 66A1[00000000]          mov AX,[R9]
  4865 0000419F 663B05[00000000]        cmp AX,[RC]
  4866 000041A6 0F8DA4000000            jge L96
  4867                                 
  4868 000041AC 98                      cwde
  4869 000041AD 05[00000000]            add EAX,list
  4870 000041B2 89C3                    mov EBX,EAX
  4871 000041B4 66A1[02000000]          mov AX,[RL+2]
  4872 000041BA 66C1E002                sal AX,2
  4873 000041BE 660B05[04000000]        or AX,[RL+4]
  4874 000041C5 C1E010                  sal EAX,16
  4875 000041C8 66A1[00000000]          mov AX,[RL]
  4876 000041CE 8903                    mov [EBX],EAX
  4877                                 
  4878                                 
  4879                                 L95:
  4880                                 
  4881 000041D0 66A1[00000000]          mov AX,[RX]
  4882 000041D6 98                      cwde
  4883 000041D7 05[00000000]            add EAX,list
  4884 000041DC 89C3                    mov EBX,EAX
  4885 000041DE 668B03                  mov AX,[EBX]
  4886 000041E1 66A3[00000000]          mov [RX],AX
  4887 000041E7 668B4302                mov AX,[EBX+2]
  4888 000041EB 6689C2                  mov DX,AX
  4889 000041EE 6683E203                and DX,3
  4890 000041F2 668915[04000000]        mov [RX+4],DX
  4891 000041F9 66C1F802                sar AX,2
  4892 000041FD 66A3[02000000]          mov [RX+2],AX
  4893                                 
  4894 00004203 98                      cwde
  4895 00004204 890424                  mov [ESP],EAX
  4896 00004207 E8(F6FFFFFF)            call iwrch
  4897 0000420C 66A3[04000000]          mov [RX+4],AX
  4898                                 
  4899 00004212 6609C0                  or AX,AX
  4900 00004215 74B7                    jz L95
  4901                                 
  4902 00004217 66B80400                mov AX,4
  4903 0000421B 98                      cwde
  4904 0000421C 890424                  mov [ESP],EAX
  4905 0000421F E8(F6FFFFFF)            call iwrite
  4906 00004224 66A3[04000000]          mov [R4+4],AX
  4907                                 
  4908 0000422A 6609C0                  or AX,AX
  4909 0000422D 0F85EF000000            jnz L98
  4910                                 
  4911 00004233 66A1[02000000]          mov AX,[RX+2]
  4912 00004239 663B05[02000000]        cmp AX,[RL+2]
  4913 00004240 7412                    jz L96
  4914                                 
  4915 00004242 98                      cwde
  4916 00004243 890424                  mov [ESP],EAX
  4917 00004246 E8(F6FFFFFF)            call iwrch
  4918 0000424B 66A3[04000000]          mov [RX+4],AX
  4919                                 
  4920 00004251 E975FFFFFF              jmp L95
  4921                                 
  4922                                 
  4923                                 L96:
  4924                                 
  4925 00004256 66A1[00000000]          mov AX,[RY]
  4926 0000425C 6609C0                  or AX,AX
  4927 0000425F 0F843EF6FFFF            jz L70
  4928                                 
  4929 00004265 662B05[00000000]        sub AX,[RH]
  4930 0000426C 66A3[00000000]          mov [RY],AX
  4931                                 
  4932 00004272 6683E804                sub AX,4
  4933 00004276 66A3[00000000]          mov [RX],AX
  4934                                 
  4935 0000427C 66A1[00000000]          mov AX,[RY]
  4936 00004282 98                      cwde
  4937 00004283 05[00000000]            add EAX,list
  4938 00004288 89C3                    mov EBX,EAX
  4939 0000428A 668B03                  mov AX,[EBX]
  4940 0000428D 66A3[00000000]          mov [RY],AX
  4941 00004293 668B4302                mov AX,[EBX+2]
  4942 00004297 6689C2                  mov DX,AX
  4943 0000429A 6683E203                and DX,3
  4944 0000429E 668915[04000000]        mov [RY+4],DX
  4945 000042A5 66C1F802                sar AX,2
  4946 000042A9 66A3[02000000]          mov [RY+2],AX
  4947                                 
  4948 000042AF 66A1[00000000]          mov AX,[RX]
  4949 000042B5 98                      cwde
  4950 000042B6 05[00000000]            add EAX,list
  4951 000042BB 89C3                    mov EBX,EAX
  4952 000042BD 668B03                  mov AX,[EBX]
  4953 000042C0 66A3[00000000]          mov [RX],AX
  4954 000042C6 668B4302                mov AX,[EBX+2]
  4955 000042CA 6689C2                  mov DX,AX
  4956 000042CD 6683E203                and DX,3
  4957 000042D1 668915[04000000]        mov [RX+4],DX
  4958 000042D8 66C1F802                sar AX,2
  4959 000042DC 66A3[02000000]          mov [RX+2],AX
  4960                                 
  4961 000042E2 E9E4FEFFFF              jmp L95
  4962                                 
  4963                                 
  4964                                 L97:
  4965                                 
  4966 000042E7 BB[00000000]            mov EBX,MB
  4967 000042EC C7430A46554C4C          mov dword [EBX+10],"FULL"
  4968 000042F3 66B80400                mov AX,4
  4969 000042F7 98                      cwde
  4970 000042F8 890424                  mov [ESP],EAX
  4971 000042FB E8(F6FFFFFF)            call iprnt
  4972 00004300 66A3[04000000]          mov [R4+4],AX
  4973                                 
  4974 00004306 B8[00000000]            mov EAX,G17
  4975 0000430B 2D[00000000]            sub EAX,progr
  4976 00004310 66A3[00000000]          mov [RB],AX
  4977 00004316 E961FEFFFF              jmp L94
  4978                                 G17:
  4979                                 
  4980 0000431B 31C0                    xor EAX,EAX
  4981 0000431D 890424                  mov [ESP],EAX
  4982 00004320 E8(F6FFFFFF)            call exit
  4983 00004325 31C0                    xor EAX,EAX
  4984                                 
  4985 00004327 C3                      ret
  4986                                 
  4987                                 
  4988                                 L98:
  4989                                 
  4990 00004328 BB[00000000]            mov EBX,MB
  4991 0000432D C7430A494F4348          mov dword [EBX+10],"IOCH"
  4992 00004334 66B80400                mov AX,4
  4993 00004338 98                      cwde
  4994 00004339 890424                  mov [ESP],EAX
  4995 0000433C E8(F6FFFFFF)            call iprnt
  4996 00004341 66A3[04000000]          mov [R4+4],AX
  4997                                 
  4998 00004347 B8[00000000]            mov EAX,G18
  4999 0000434C 2D[00000000]            sub EAX,progr
  5000 00004351 66A3[00000000]          mov [RB],AX
  5001 00004357 E920FEFFFF              jmp L94
  5002                                 G18:
  5003                                 
  5004 0000435C 31C0                    xor EAX,EAX
  5005 0000435E 890424                  mov [ESP],EAX
  5006 00004361 E8(F6FFFFFF)            call exit
  5007 00004366 31C0                    xor EAX,EAX
  5008                                 
  5009 00004368 C3                      ret
  5010                                 
  5011                                 
  5012                                  end
